

Microchip MPLAB XC8 Assembler V3.10 build 20250813170317 
                                                                                               Tue Dec  2 13:03:02 2025

Microchip MPLAB XC8 C Compiler v3.10 (Free license) build 20250813170317 Og1 
     1                           	processor	16F877A
     2                           	pagewidth 120
     3                           	opt	flic
     4                           	psect	strings,global,class=STRING,space=0,delta=2,noexec
     5                           	psect	stringtext,global,reloc=256,class=STRCODE,space=0,delta=2,noexec
     6                           	psect	cinit,global,class=CODE,space=0,merge=1,delta=2
     7                           	psect	bssBANK0,global,class=BANK0,space=1,delta=1,noexec
     8                           	psect	bssBANK1,global,class=BANK1,space=1,delta=1,noexec
     9                           	psect	clrtext,global,class=CODE,space=0,delta=2
    10                           	psect	cstackBANK1,global,class=BANK1,space=1,delta=1,noexec
    11                           	psect	cstackCOMMON,global,class=COMMON,space=1,delta=1,noexec
    12                           	psect	cstackBANK0,global,class=BANK0,space=1,delta=1,noexec
    13                           	psect	maintext,global,class=CODE,space=0,split=1,delta=2
    14                           	psect	text1,local,class=CODE,space=0,merge=1,delta=2,group=3
    15                           	psect	text2,local,class=CODE,space=0,merge=1,delta=2,group=1
    16                           	psect	text3,local,class=CODE,space=0,merge=1,delta=2,group=1
    17                           	psect	text4,local,class=CODE,space=0,merge=1,delta=2,group=3
    18                           	psect	text5,local,class=CODE,space=0,merge=1,delta=2,group=3
    19                           	psect	text6,local,class=CODE,space=0,merge=1,delta=2,group=3
    20                           	psect	text7,local,class=CODE,space=0,merge=1,delta=2,group=2
    21                           	psect	text8,local,class=CODE,space=0,merge=1,delta=2,group=2
    22                           	psect	text9,local,class=CODE,space=0,merge=1,delta=2,group=2
    23                           	psect	text10,local,class=CODE,space=0,merge=1,delta=2,group=2
    24                           	psect	text11,local,class=CODE,space=0,merge=1,delta=2
    25                           	psect	text12,local,class=CODE,space=0,merge=1,delta=2
    26                           	psect	text13,local,class=CODE,space=0,merge=1,delta=2
    27                           	psect	text14,local,class=CODE,space=0,merge=1,delta=2,group=2
    28                           	psect	text15,local,class=CODE,space=0,merge=1,delta=2
    29                           	psect	text16,local,class=CODE,space=0,merge=1,delta=2
    30                           	psect	text17,local,class=CODE,space=0,merge=1,delta=2
    31                           	psect	text18,local,class=CODE,space=0,merge=1,delta=2
    32                           	psect	text19,local,class=CODE,space=0,merge=1,delta=2
    33                           	psect	text20,local,class=CODE,space=0,merge=1,delta=2
    34                           	psect	text21,local,class=CODE,space=0,merge=1,delta=2
    35                           	psect	text22,local,class=CODE,space=0,merge=1,delta=2
    36                           	psect	text23,local,class=CODE,space=0,merge=1,delta=2
    37                           	psect	text24,local,class=CODE,space=0,merge=1,delta=2
    38                           	psect	text25,local,class=CODE,space=0,merge=1,delta=2
    39                           	psect	text26,local,class=CODE,space=0,merge=1,delta=2
    40                           	psect	text27,local,class=CODE,space=0,merge=1,delta=2
    41                           	psect	intentry,global,class=CODE,space=0,delta=2
    42                           	psect	config,global,abs,ovrld,class=CONFIG,space=4,delta=2,noexec
    43                           	dabs	1,0x7E,2
    44     0000                     
    45                           ; Version 2.20
    46                           ; Generated 12/02/2020 GMT
    47                           ; 
    48                           ; Copyright © 2020, Microchip Technology Inc. and its subsidiaries ("Microchip")
    49                           ; All rights reserved.
    50                           ; 
    51                           ; This software is developed by Microchip Technology Inc. and its subsidiaries ("Microch
      +                          ip").
    52                           ; 
    53                           ; Redistribution and use in source and binary forms, with or without modification, are
    54                           ; permitted provided that the following conditions are met:
    55                           ; 
    56                           ;     1. Redistributions of source code must retain the above copyright notice, this lis
      +                          t of
    57                           ;        conditions and the following disclaimer.
    58                           ; 
    59                           ;     2. Redistributions in binary form must reproduce the above copyright notice, this 
      +                          list
    60                           ;        of conditions and the following disclaimer in the documentation and/or other
    61                           ;        materials provided with the distribution.
    62                           ; 
    63                           ;     3. Microchip's name may not be used to endorse or promote products derived from th
      +                          is
    64                           ;        software without specific prior written permission.
    65                           ; 
    66                           ; THIS SOFTWARE IS PROVIDED BY MICROCHIP "AS IS" AND ANY EXPRESS OR IMPLIED WARRANTIES,
    67                           ; INCLUDING, BUT NOT LIMITED TO, THE IMPLIED WARRANTIES OF MERCHANTABILITY AND FITNESS F
      +                          OR
    68                           ; PURPOSE ARE DISCLAIMED.  IN NO EVENT SHALL MICROCHIP BE LIABLE FOR ANY DIRECT, INDIREC
      +                          T,
    69                           ; INCIDENTAL, SPECIAL, EXEMPLARY, OR CONSEQUENTIAL DAMAGES (INCLUDING BUT NOT LIMITED TO
    70                           ; PROCUREMENT OF SUBSTITUTE GOODS OR SERVICES; LOSS OF USE, DATA OR PROFITS; OR BUSINESS
    71                           ; INTERRUPTION) HOWSOEVER CAUSED AND ON ANY THEORY OF LIABILITY, WHETHER IN CONTRACT, ST
      +                          RICT
    72                           ; LIABILITY, OR TORT (INCLUDING NEGLIGENCE OR OTHERWISE) ARISING IN ANY WAY OUT OF THE U
      +                          SE OF
    73                           ; THIS SOFTWARE, EVEN IF ADVISED OF THE POSSIBILITY OF SUCH DAMAGE.
    74                           ; 
    75                           ; 
    76                           ; Code-generator required, PIC16F877A Definitions
    77                           ; 
    78                           ; SFR Addresses
    79     0004                     fsr             equ	4
    80     0004                     fsr0            equ	4
    81     0000                     indf            equ	0
    82     0000                     indf0           equ	0
    83     0002                     pc              equ	2
    84     0002                     pcl             equ	2
    85     000A                     pclath          equ	10
    86     0003                     status          equ	3
    87     0000                     INDF            equ	0	;# 
    88     0001                     TMR0            equ	1	;# 
    89     0002                     PCL             equ	2	;# 
    90     0003                     STATUS          equ	3	;# 
    91     0004                     FSR             equ	4	;# 
    92     0005                     PORTA           equ	5	;# 
    93     0006                     PORTB           equ	6	;# 
    94     0007                     PORTC           equ	7	;# 
    95     0008                     PORTD           equ	8	;# 
    96     0009                     PORTE           equ	9	;# 
    97     000A                     PCLATH          equ	10	;# 
    98     000B                     INTCON          equ	11	;# 
    99     000C                     PIR1            equ	12	;# 
   100     000D                     PIR2            equ	13	;# 
   101     000E                     TMR1            equ	14	;# 
   102     000E                     TMR1L           equ	14	;# 
   103     000F                     TMR1H           equ	15	;# 
   104     0010                     T1CON           equ	16	;# 
   105     0011                     TMR2            equ	17	;# 
   106     0012                     T2CON           equ	18	;# 
   107     0013                     SSPBUF          equ	19	;# 
   108     0014                     SSPCON          equ	20	;# 
   109     0015                     CCPR1           equ	21	;# 
   110     0015                     CCPR1L          equ	21	;# 
   111     0016                     CCPR1H          equ	22	;# 
   112     0017                     CCP1CON         equ	23	;# 
   113     0018                     RCSTA           equ	24	;# 
   114     0019                     TXREG           equ	25	;# 
   115     001A                     RCREG           equ	26	;# 
   116     001B                     CCPR2           equ	27	;# 
   117     001B                     CCPR2L          equ	27	;# 
   118     001C                     CCPR2H          equ	28	;# 
   119     001D                     CCP2CON         equ	29	;# 
   120     001E                     ADRESH          equ	30	;# 
   121     001F                     ADCON0          equ	31	;# 
   122     0081                     OPTION_REG      equ	129	;# 
   123     0085                     TRISA           equ	133	;# 
   124     0086                     TRISB           equ	134	;# 
   125     0087                     TRISC           equ	135	;# 
   126     0088                     TRISD           equ	136	;# 
   127     0089                     TRISE           equ	137	;# 
   128     008C                     PIE1            equ	140	;# 
   129     008D                     PIE2            equ	141	;# 
   130     008E                     PCON            equ	142	;# 
   131     0091                     SSPCON2         equ	145	;# 
   132     0092                     PR2             equ	146	;# 
   133     0093                     SSPADD          equ	147	;# 
   134     0094                     SSPSTAT         equ	148	;# 
   135     0098                     TXSTA           equ	152	;# 
   136     0099                     SPBRG           equ	153	;# 
   137     009C                     CMCON           equ	156	;# 
   138     009D                     CVRCON          equ	157	;# 
   139     009E                     ADRESL          equ	158	;# 
   140     009F                     ADCON1          equ	159	;# 
   141     010C                     EEDATA          equ	268	;# 
   142     010D                     EEADR           equ	269	;# 
   143     010E                     EEDATH          equ	270	;# 
   144     010F                     EEADRH          equ	271	;# 
   145     018C                     EECON1          equ	396	;# 
   146     018D                     EECON2          equ	397	;# 
   147     0000                     INDF            equ	0	;# 
   148     0001                     TMR0            equ	1	;# 
   149     0002                     PCL             equ	2	;# 
   150     0003                     STATUS          equ	3	;# 
   151     0004                     FSR             equ	4	;# 
   152     0005                     PORTA           equ	5	;# 
   153     0006                     PORTB           equ	6	;# 
   154     0007                     PORTC           equ	7	;# 
   155     0008                     PORTD           equ	8	;# 
   156     0009                     PORTE           equ	9	;# 
   157     000A                     PCLATH          equ	10	;# 
   158     000B                     INTCON          equ	11	;# 
   159     000C                     PIR1            equ	12	;# 
   160     000D                     PIR2            equ	13	;# 
   161     000E                     TMR1            equ	14	;# 
   162     000E                     TMR1L           equ	14	;# 
   163     000F                     TMR1H           equ	15	;# 
   164     0010                     T1CON           equ	16	;# 
   165     0011                     TMR2            equ	17	;# 
   166     0012                     T2CON           equ	18	;# 
   167     0013                     SSPBUF          equ	19	;# 
   168     0014                     SSPCON          equ	20	;# 
   169     0015                     CCPR1           equ	21	;# 
   170     0015                     CCPR1L          equ	21	;# 
   171     0016                     CCPR1H          equ	22	;# 
   172     0017                     CCP1CON         equ	23	;# 
   173     0018                     RCSTA           equ	24	;# 
   174     0019                     TXREG           equ	25	;# 
   175     001A                     RCREG           equ	26	;# 
   176     001B                     CCPR2           equ	27	;# 
   177     001B                     CCPR2L          equ	27	;# 
   178     001C                     CCPR2H          equ	28	;# 
   179     001D                     CCP2CON         equ	29	;# 
   180     001E                     ADRESH          equ	30	;# 
   181     001F                     ADCON0          equ	31	;# 
   182     0081                     OPTION_REG      equ	129	;# 
   183     0085                     TRISA           equ	133	;# 
   184     0086                     TRISB           equ	134	;# 
   185     0087                     TRISC           equ	135	;# 
   186     0088                     TRISD           equ	136	;# 
   187     0089                     TRISE           equ	137	;# 
   188     008C                     PIE1            equ	140	;# 
   189     008D                     PIE2            equ	141	;# 
   190     008E                     PCON            equ	142	;# 
   191     0091                     SSPCON2         equ	145	;# 
   192     0092                     PR2             equ	146	;# 
   193     0093                     SSPADD          equ	147	;# 
   194     0094                     SSPSTAT         equ	148	;# 
   195     0098                     TXSTA           equ	152	;# 
   196     0099                     SPBRG           equ	153	;# 
   197     009C                     CMCON           equ	156	;# 
   198     009D                     CVRCON          equ	157	;# 
   199     009E                     ADRESL          equ	158	;# 
   200     009F                     ADCON1          equ	159	;# 
   201     010C                     EEDATA          equ	268	;# 
   202     010D                     EEADR           equ	269	;# 
   203     010E                     EEDATH          equ	270	;# 
   204     010F                     EEADRH          equ	271	;# 
   205     018C                     EECON1          equ	396	;# 
   206     018D                     EECON2          equ	397	;# 
   207     0006                     _PORTBbits      set	6
   208     001E                     _ADRESH         set	30
   209     001F                     _ADCON0         set	31
   210     001A                     _RCREG          set	26
   211     000C                     _PIR1bits       set	12
   212     0019                     _TXREG          set	25
   213     0018                     _RCSTAbits      set	24
   214     000B                     _INTCONbits     set	11
   215     00FA                     _GO_nDONE       set	250
   216     0043                     _RD3            set	67
   217     0042                     _RD2            set	66
   218     0047                     _RD7            set	71
   219     0046                     _RD6            set	70
   220     0045                     _RD5            set	69
   221     0044                     _RD4            set	68
   222     0081                     _OPTION_REGbits set	129
   223     0086                     _TRISB          set	134
   224     0088                     _TRISD          set	136
   225     009E                     _ADRESL         set	158
   226     009F                     _ADCON1         set	159
   227     0098                     _TXSTAbits      set	152
   228     0099                     _SPBRG          set	153
   229     010C                     _EEDATA         set	268
   230     010D                     _EEADR          set	269
   231     018D                     _EECON2         set	397
   232     018C                     _EECON1bits     set	396
   233                           
   234                           	psect	strings
   235     0800                     __pstrings:
   236     0800                     stringtab:
   237     0800                     __stringtab:
   238                           
   239                           ;	String table - string pointers are 2 bytes each
   240     0800  1BFF               	btfsc	btemp+1,7
   241     0801  280A               	ljmp	stringcode
   242     0802  1383               	bcf	3,7
   243     0803  187F               	btfsc	btemp+1,0
   244     0804  1783               	bsf	3,7
   245     0805  0800               	movf	0,w
   246     0806  0A84               	incf	4,f
   247     0807  1903               	skipnz
   248     0808  0AFF               	incf	btemp+1,f
   249     0809  0008               	return
   250     080A                     stringcode:
   251     080A  087F               	movf	btemp+1,w
   252     080B  397F               	andlw	127
   253     080C  008A               	movwf	10
   254     080D  0804               	movf	4,w
   255     080E  0A84               	incf	4,f
   256     080F  1903               	skipnz
   257     0810  0AFF               	incf	btemp+1,f
   258     0811  0082               	movwf	2
   259     0812                     __stringbase:
   260     0812                     __end_of__stringtab:
   261                           
   262                           	psect	stringtext
   263     0500                     __pstringtext:
   264     0500                     STR_33:
   265     0500  3420               	retlw	32	;' '
   266     0501  3420               	retlw	32	;' '
   267     0502  3420               	retlw	32	;' '
   268     0503  3420               	retlw	32	;' '
   269     0504  3420               	retlw	32	;' '
   270     0505  3420               	retlw	32	;' '
   271     0506  3420               	retlw	32	;' '
   272     0507  3420               	retlw	32	;' '
   273     0508  3420               	retlw	32	;' '
   274     0509  3420               	retlw	32	;' '
   275     050A  3420               	retlw	32	;' '
   276     050B  3420               	retlw	32	;' '
   277     050C  3420               	retlw	32	;' '
   278     050D  3420               	retlw	32	;' '
   279     050E  3420               	retlw	32	;' '
   280     050F  3420               	retlw	32	;' '
   281     0510  3420               	retlw	32	;' '
   282     0511  3420               	retlw	32	;' '
   283     0512  3420               	retlw	32	;' '
   284     0513  3420               	retlw	32	;' '
   285     0514  3420               	retlw	32	;' '
   286     0515  3420               	retlw	32	;' '
   287     0516  3420               	retlw	32	;' '
   288     0517  3400               	retlw	0
   289     0518                     STR_30:
   290     0518  343E               	retlw	62	;'>'
   291     0519  343E               	retlw	62	;'>'
   292     051A  343E               	retlw	62	;'>'
   293     051B  3420               	retlw	32	;' '
   294     051C  3453               	retlw	83	;'S'
   295     051D  3445               	retlw	69	;'E'
   296     051E  344E               	retlw	78	;'N'
   297     051F  3444               	retlw	68	;'D'
   298     0520  3449               	retlw	73	;'I'
   299     0521  344E               	retlw	78	;'N'
   300     0522  3447               	retlw	71	;'G'
   301     0523  3420               	retlw	32	;' '
   302     0524  3441               	retlw	65	;'A'
   303     0525  3454               	retlw	84	;'T'
   304     0526  3454               	retlw	84	;'T'
   305     0527  3441               	retlw	65	;'A'
   306     0528  3443               	retlw	67	;'C'
   307     0529  344B               	retlw	75	;'K'
   308     052A  3420               	retlw	32	;' '
   309     052B  343C               	retlw	60	;'<'
   310     052C  343C               	retlw	60	;'<'
   311     052D  343C               	retlw	60	;'<'
   312     052E  3400               	retlw	0
   313     052F                     STR_1:
   314     052F  3443               	retlw	67	;'C'
   315     0530  3441               	retlw	65	;'A'
   316     0531  344E               	retlw	78	;'N'
   317     0532  3420               	retlw	32	;' '
   318     0533  3441               	retlw	65	;'A'
   319     0534  3454               	retlw	84	;'T'
   320     0535  3454               	retlw	84	;'T'
   321     0536  3441               	retlw	65	;'A'
   322     0537  3443               	retlw	67	;'C'
   323     0538  344B               	retlw	75	;'K'
   324     0539  3420               	retlw	32	;' '
   325     053A  3453               	retlw	83	;'S'
   326     053B  3449               	retlw	73	;'I'
   327     053C  344D               	retlw	77	;'M'
   328     053D  3455               	retlw	85	;'U'
   329     053E  344C               	retlw	76	;'L'
   330     053F  3441               	retlw	65	;'A'
   331     0540  3454               	retlw	84	;'T'
   332     0541  344F               	retlw	79	;'O'
   333     0542  3452               	retlw	82	;'R'
   334     0543  3400               	retlw	0
   335     0544                     STR_29:
   336     0544  344C               	retlw	76	;'L'
   337     0545  344F               	retlw	79	;'O'
   338     0546  3441               	retlw	65	;'A'
   339     0547  3444               	retlw	68	;'D'
   340     0548  343A               	retlw	58	;':'
   341     0549  3420               	retlw	32	;' '
   342     054A  3425               	retlw	37	;'%'
   343     054B  3464               	retlw	100	;'d'
   344     054C  3425               	retlw	37	;'%'
   345     054D  3425               	retlw	37	;'%'
   346     054E  3420               	retlw	32	;' '
   347     054F  345B               	retlw	91	;'['
   348     0550  344B               	retlw	75	;'K'
   349     0551  3449               	retlw	73	;'I'
   350     0552  344C               	retlw	76	;'L'
   351     0553  344C               	retlw	76	;'L'
   352     0554  345D               	retlw	93	;']'
   353     0555  3400               	retlw	0
   354     0556                     STR_24:
   355     0556  3444               	retlw	68	;'D'
   356     0557  344F               	retlw	79	;'O'
   357     0558  344E               	retlw	78	;'N'
   358     0559  3445               	retlw	69	;'E'
   359     055A  342E               	retlw	46	;'.'
   360     055B  3420               	retlw	32	;' '
   361     055C  3420               	retlw	32	;' '
   362     055D  3420               	retlw	32	;' '
   363     055E  3420               	retlw	32	;' '
   364     055F  3420               	retlw	32	;' '
   365     0560  3420               	retlw	32	;' '
   366     0561  3420               	retlw	32	;' '
   367     0562  3420               	retlw	32	;' '
   368     0563  3420               	retlw	32	;' '
   369     0564  3420               	retlw	32	;' '
   370     0565  3420               	retlw	32	;' '
   371     0566  3400               	retlw	0
   372     0567                     STR_20:
   373     0567  3454               	retlw	84	;'T'
   374     0568  3459               	retlw	89	;'Y'
   375     0569  3450               	retlw	80	;'P'
   376     056A  3445               	retlw	69	;'E'
   377     056B  343A               	retlw	58	;':'
   378     056C  3420               	retlw	32	;' '
   379     056D  344C               	retlw	76	;'L'
   380     056E  344F               	retlw	79	;'O'
   381     056F  3443               	retlw	67	;'C'
   382     0570  344B               	retlw	75	;'K'
   383     0571  3420               	retlw	32	;' '
   384     0572  3420               	retlw	32	;' '
   385     0573  3420               	retlw	32	;' '
   386     0574  3420               	retlw	32	;' '
   387     0575  3420               	retlw	32	;' '
   388     0576  3420               	retlw	32	;' '
   389     0577  3400               	retlw	0
   390     0578                     STR_19:
   391     0578  3454               	retlw	84	;'T'
   392     0579  3459               	retlw	89	;'Y'
   393     057A  3450               	retlw	80	;'P'
   394     057B  3445               	retlw	69	;'E'
   395     057C  343A               	retlw	58	;':'
   396     057D  3420               	retlw	32	;' '
   397     057E  3455               	retlw	85	;'U'
   398     057F  344E               	retlw	78	;'N'
   399     0580  344C               	retlw	76	;'L'
   400     0581  344F               	retlw	79	;'O'
   401     0582  3443               	retlw	67	;'C'
   402     0583  344B               	retlw	75	;'K'
   403     0584  3420               	retlw	32	;' '
   404     0585  3420               	retlw	32	;' '
   405     0586  3420               	retlw	32	;' '
   406     0587  3420               	retlw	32	;' '
   407     0588  3400               	retlw	0
   408     0589                     STR_18:
   409     0589  3443               	retlw	67	;'C'
   410     058A  3441               	retlw	65	;'A'
   411     058B  3450               	retlw	80	;'P'
   412     058C  3454               	retlw	84	;'T'
   413     058D  3455               	retlw	85	;'U'
   414     058E  3452               	retlw	82	;'R'
   415     058F  3445               	retlw	69	;'E'
   416     0590  3444               	retlw	68	;'D'
   417     0591  343A               	retlw	58	;':'
   418     0592  3420               	retlw	32	;' '
   419     0593  344B               	retlw	75	;'K'
   420     0594  3445               	retlw	69	;'E'
   421     0595  3459               	retlw	89	;'Y'
   422     0596  3420               	retlw	32	;' '
   423     0597  3420               	retlw	32	;' '
   424     0598  3420               	retlw	32	;' '
   425     0599  3400               	retlw	0
   426     059A                     STR_25:
   427     059A  3445               	retlw	69	;'E'
   428     059B  3452               	retlw	82	;'R'
   429     059C  3452               	retlw	82	;'R'
   430     059D  344F               	retlw	79	;'O'
   431     059E  3452               	retlw	82	;'R'
   432     059F  343A               	retlw	58	;':'
   433     05A0  3420               	retlw	32	;' '
   434     05A1  344E               	retlw	78	;'N'
   435     05A2  344F               	retlw	79	;'O'
   436     05A3  3420               	retlw	32	;' '
   437     05A4  344B               	retlw	75	;'K'
   438     05A5  3445               	retlw	69	;'E'
   439     05A6  3459               	retlw	89	;'Y'
   440     05A7  3421               	retlw	33	;'!'
   441     05A8  3420               	retlw	32	;' '
   442     05A9  3420               	retlw	32	;' '
   443     05AA  3400               	retlw	0
   444     05AB                     STR_23:
   445     05AB  3449               	retlw	73	;'I'
   446     05AC  344E               	retlw	78	;'N'
   447     05AD  344A               	retlw	74	;'J'
   448     05AE  3445               	retlw	69	;'E'
   449     05AF  3443               	retlw	67	;'C'
   450     05B0  3454               	retlw	84	;'T'
   451     05B1  3449               	retlw	73	;'I'
   452     05B2  344E               	retlw	78	;'N'
   453     05B3  3447               	retlw	71	;'G'
   454     05B4  3420               	retlw	32	;' '
   455     05B5  344B               	retlw	75	;'K'
   456     05B6  3445               	retlw	69	;'E'
   457     05B7  3459               	retlw	89	;'Y'
   458     05B8  342E               	retlw	46	;'.'
   459     05B9  342E               	retlw	46	;'.'
   460     05BA  342E               	retlw	46	;'.'
   461     05BB  3400               	retlw	0
   462     05BC                     STR_15:
   463     05BC  3455               	retlw	85	;'U'
   464     05BD  3453               	retlw	83	;'S'
   465     05BE  3445               	retlw	69	;'E'
   466     05BF  3420               	retlw	32	;' '
   467     05C0  3450               	retlw	80	;'P'
   468     05C1  344F               	retlw	79	;'O'
   469     05C2  3454               	retlw	84	;'T'
   470     05C3  3420               	retlw	32	;' '
   471     05C4  3454               	retlw	84	;'T'
   472     05C5  344F               	retlw	79	;'O'
   473     05C6  3420               	retlw	32	;' '
   474     05C7  3446               	retlw	70	;'F'
   475     05C8  344C               	retlw	76	;'L'
   476     05C9  344F               	retlw	79	;'O'
   477     05CA  344F               	retlw	79	;'O'
   478     05CB  3444               	retlw	68	;'D'
   479     05CC  3400               	retlw	0
   480     05CD                     STR_10:
   481     05CD  343E               	retlw	62	;'>'
   482     05CE  3420               	retlw	32	;' '
   483     05CF  3431               	retlw	49	;'1'
   484     05D0  342E               	retlw	46	;'.'
   485     05D1  3420               	retlw	32	;' '
   486     05D2  3453               	retlw	83	;'S'
   487     05D3  344E               	retlw	78	;'N'
   488     05D4  3449               	retlw	73	;'I'
   489     05D5  3446               	retlw	70	;'F'
   490     05D6  3446               	retlw	70	;'F'
   491     05D7  3445               	retlw	69	;'E'
   492     05D8  3452               	retlw	82	;'R'
   493     05D9  3420               	retlw	32	;' '
   494     05DA  344B               	retlw	75	;'K'
   495     05DB  3445               	retlw	69	;'E'
   496     05DC  3459               	retlw	89	;'Y'
   497     05DD  3400               	retlw	0
   498     05DE                     STR_28:
   499     05DE  3441               	retlw	65	;'A'
   500     05DF  3444               	retlw	68	;'D'
   501     05E0  344A               	retlw	74	;'J'
   502     05E1  3455               	retlw	85	;'U'
   503     05E2  3453               	retlw	83	;'S'
   504     05E3  3454               	retlw	84	;'T'
   505     05E4  3420               	retlw	32	;' '
   506     05E5  3449               	retlw	73	;'I'
   507     05E6  344E               	retlw	78	;'N'
   508     05E7  3454               	retlw	84	;'T'
   509     05E8  3445               	retlw	69	;'E'
   510     05E9  344E               	retlw	78	;'N'
   511     05EA  3453               	retlw	83	;'S'
   512     05EB  3449               	retlw	73	;'I'
   513     05EC  3454               	retlw	84	;'T'
   514     05ED  3459               	retlw	89	;'Y'
   515     05EE  3400               	retlw	0
   516     05EF                     STR_4:
   517     05EF  3421               	retlw	33	;'!'
   518     05F0  3421               	retlw	33	;'!'
   519     05F1  3421               	retlw	33	;'!'
   520     05F2  3420               	retlw	32	;' '
   521     05F3  3441               	retlw	65	;'A'
   522     05F4  3442               	retlw	66	;'B'
   523     05F5  344F               	retlw	79	;'O'
   524     05F6  3452               	retlw	82	;'R'
   525     05F7  3454               	retlw	84	;'T'
   526     05F8  3445               	retlw	69	;'E'
   527     05F9  3444               	retlw	68	;'D'
   528     05FA  3420               	retlw	32	;' '
   529     05FB  3421               	retlw	33	;'!'
   530     05FC  3421               	retlw	33	;'!'
   531     05FD  3421               	retlw	33	;'!'
   532     05FE  3400               	retlw	0
   533     05FF                     STR_11:
   534     05FF  345B               	retlw	91	;'['
   535     0600  3453               	retlw	83	;'S'
   536     0601  3445               	retlw	69	;'E'
   537     0602  344C               	retlw	76	;'L'
   538     0603  345D               	retlw	93	;']'
   539     0604  3420               	retlw	32	;' '
   540     0605  3454               	retlw	84	;'T'
   541     0606  344F               	retlw	79	;'O'
   542     0607  3420               	retlw	32	;' '
   543     0608  3452               	retlw	82	;'R'
   544     0609  3445               	retlw	69	;'E'
   545     060A  3443               	retlw	67	;'C'
   546     060B  344F               	retlw	79	;'O'
   547     060C  3452               	retlw	82	;'R'
   548     060D  3444               	retlw	68	;'D'
   549     060E  3400               	retlw	0
   550     060F                     STR_14:
   551     060F  343E               	retlw	62	;'>'
   552     0610  3420               	retlw	32	;' '
   553     0611  3433               	retlw	51	;'3'
   554     0612  342E               	retlw	46	;'.'
   555     0613  3420               	retlw	32	;' '
   556     0614  3444               	retlw	68	;'D'
   557     0615  346F               	retlw	111	;'o'
   558     0616  3453               	retlw	83	;'S'
   559     0617  3420               	retlw	32	;' '
   560     0618  3441               	retlw	65	;'A'
   561     0619  3454               	retlw	84	;'T'
   562     061A  3454               	retlw	84	;'T'
   563     061B  3441               	retlw	65	;'A'
   564     061C  3443               	retlw	67	;'C'
   565     061D  344B               	retlw	75	;'K'
   566     061E  3400               	retlw	0
   567     061F                     STR_13:
   568     061F  345B               	retlw	91	;'['
   569     0620  3453               	retlw	83	;'S'
   570     0621  3445               	retlw	69	;'E'
   571     0622  344C               	retlw	76	;'L'
   572     0623  345D               	retlw	93	;']'
   573     0624  3420               	retlw	32	;' '
   574     0625  3454               	retlw	84	;'T'
   575     0626  344F               	retlw	79	;'O'
   576     0627  3420               	retlw	32	;' '
   577     0628  3449               	retlw	73	;'I'
   578     0629  344E               	retlw	78	;'N'
   579     062A  344A               	retlw	74	;'J'
   580     062B  3445               	retlw	69	;'E'
   581     062C  3443               	retlw	67	;'C'
   582     062D  3454               	retlw	84	;'T'
   583     062E  3400               	retlw	0
   584     062F                     STR_3:
   585     062F  345B               	retlw	91	;'['
   586     0630  344D               	retlw	77	;'M'
   587     0631  3445               	retlw	69	;'E'
   588     0632  344E               	retlw	78	;'N'
   589     0633  3455               	retlw	85	;'U'
   590     0634  345D               	retlw	93	;']'
   591     0635  3420               	retlw	32	;' '
   592     0636  3454               	retlw	84	;'T'
   593     0637  344F               	retlw	79	;'O'
   594     0638  3420               	retlw	32	;' '
   595     0639  3453               	retlw	83	;'S'
   596     063A  3454               	retlw	84	;'T'
   597     063B  3441               	retlw	65	;'A'
   598     063C  3452               	retlw	82	;'R'
   599     063D  3454               	retlw	84	;'T'
   600     063E  3400               	retlw	0
   601     063F                     STR_12:
   602     063F  343E               	retlw	62	;'>'
   603     0640  3420               	retlw	32	;' '
   604     0641  3432               	retlw	50	;'2'
   605     0642  342E               	retlw	46	;'.'
   606     0643  3420               	retlw	32	;' '
   607     0644  3452               	retlw	82	;'R'
   608     0645  3445               	retlw	69	;'E'
   609     0646  3450               	retlw	80	;'P'
   610     0647  344C               	retlw	76	;'L'
   611     0648  3441               	retlw	65	;'A'
   612     0649  3459               	retlw	89	;'Y'
   613     064A  3420               	retlw	32	;' '
   614     064B  344B               	retlw	75	;'K'
   615     064C  3445               	retlw	69	;'E'
   616     064D  3459               	retlw	89	;'Y'
   617     064E  3400               	retlw	0
   618     064F                     STR_16:
   619     064F  345B               	retlw	91	;'['
   620     0650  3453               	retlw	83	;'S'
   621     0651  3445               	retlw	69	;'E'
   622     0652  344C               	retlw	76	;'L'
   623     0653  345D               	retlw	93	;']'
   624     0654  3420               	retlw	32	;' '
   625     0655  3454               	retlw	84	;'T'
   626     0656  344F               	retlw	79	;'O'
   627     0657  3420               	retlw	32	;' '
   628     0658  3453               	retlw	83	;'S'
   629     0659  3454               	retlw	84	;'T'
   630     065A  3441               	retlw	65	;'A'
   631     065B  3452               	retlw	82	;'R'
   632     065C  3454               	retlw	84	;'T'
   633     065D  3400               	retlw	0
   634     065E                     STR_17:
   635     065E  344C               	retlw	76	;'L'
   636     065F  3449               	retlw	73	;'I'
   637     0660  3453               	retlw	83	;'S'
   638     0661  3454               	retlw	84	;'T'
   639     0662  3445               	retlw	69	;'E'
   640     0663  344E               	retlw	78	;'N'
   641     0664  3449               	retlw	73	;'I'
   642     0665  344E               	retlw	78	;'N'
   643     0666  3447               	retlw	71	;'G'
   644     0667  342E               	retlw	46	;'.'
   645     0668  342E               	retlw	46	;'.'
   646     0669  342E               	retlw	46	;'.'
   647     066A  3400               	retlw	0
   648     066B                     STR_31:
   649     066B  343E               	retlw	62	;'>'
   650     066C  343E               	retlw	62	;'>'
   651     066D  343E               	retlw	62	;'>'
   652     066E  3420               	retlw	32	;' '
   653     066F  344B               	retlw	75	;'K'
   654     0670  3449               	retlw	73	;'I'
   655     0671  344C               	retlw	76	;'L'
   656     0672  344C               	retlw	76	;'L'
   657     0673  3420               	retlw	32	;' '
   658     0674  343C               	retlw	60	;'<'
   659     0675  343C               	retlw	60	;'<'
   660     0676  343C               	retlw	60	;'<'
   661     0677  3400               	retlw	0
   662     063F                     STR_26          equ	STR_12
   663     05CD                     STR_21          equ	STR_10
   664     062F                     STR_6           equ	STR_3
   665     052F                     STR_2           equ	STR_1
   666     052F                     STR_5           equ	STR_1
   667     066B                     STR_32          equ	STR_31
   668     0503                     STR_7           equ	STR_33+3
   669     0503                     STR_8           equ	STR_33+3
   670     0503                     STR_9           equ	STR_33+3
   671     0503                     STR_22          equ	STR_33+3
   672     0503                     STR_27          equ	STR_33+3
   673                           
   674                           	psect	cinit
   675     000F                     start_initialization:	
   676                           ; #config settings
   677                           
   678     000F                     __initialization:
   679                           
   680                           ; Clear objects allocated to BANK0
   681     000F  1283               	bcf	3,5	;RP0=0, select bank0
   682     0010  1303               	bcf	3,6	;RP1=0, select bank0
   683     0011  01D5               	clrf	__pbssBANK0& (0+127)
   684     0012  01D6               	clrf	(__pbssBANK0+1)& (0+127)
   685     0013  01D7               	clrf	(__pbssBANK0+2)& (0+127)
   686     0014  01D8               	clrf	(__pbssBANK0+3)& (0+127)
   687     0015  01D9               	clrf	(__pbssBANK0+4)& (0+127)
   688                           
   689                           ; Clear objects allocated to BANK1
   690     0016  1383               	bcf	3,7	;select IRP bank0
   691     0017  30A0               	movlw	low __pbssBANK1
   692     0018  0084               	movwf	4
   693     0019  30C4               	movlw	low (__pbssBANK1+36)
   694     001A  120A  158A  2342  120A  118A  	fcall	clear_ram0
   695     001F                     end_of_initialization:	
   696                           ;End of C runtime variable initialization code
   697                           
   698     001F                     __end_of__initialization:
   699     001F  0183               	clrf	3
   700     0020  120A  118A  2823   	ljmp	_main	;jump to C main() function
   701                           
   702                           	psect	bssBANK0
   703     0055                     __pbssBANK0:
   704     0055                     _width:
   705     0055                     	ds	2
   706     0057                     _prec:
   707     0057                     	ds	2
   708     0059                     _flags:
   709     0059                     	ds	1
   710                           
   711                           	psect	bssBANK1
   712     00A0                     __pbssBANK1:
   713     00A0                     _dbuf:
   714     00A0                     	ds	32
   715     00C0                     _menu:
   716     00C0                     	ds	2
   717     00C2                     _abortar:
   718     00C2                     	ds	2
   719                           
   720                           	psect	clrtext
   721     0B42                     clear_ram0:	
   722                           ;	Called with FSR containing the base address, and
   723                           ;	W with the last address+1
   724                           
   725     0B42  0064               	clrwdt	;clear the watchdog before getting into this loop
   726     0B43                     clrloop0:
   727     0B43  0180               	clrf	0	;clear RAM location pointed to by FSR
   728     0B44  0A84               	incf	4,f	;increment pointer
   729     0B45  0604               	xorwf	4,w	;XOR with final address
   730     0B46  1903               	btfsc	3,2	;have we reached the end yet?
   731     0B47  3400               	retlw	0	;all done for this memory range, return
   732     0B48  0604               	xorwf	4,w	;XOR again to restore value
   733     0B49  2B43               	goto	clrloop0	;do the next byte
   734                           
   735                           	psect	cstackBANK1
   736     00C4                     __pcstackBANK1:
   737     00C4                     main@s:
   738                           
   739                           ; 20 bytes @ 0x0
   740     00C4                     	ds	20
   741     00D8                     main@pot:
   742                           
   743                           ; 2 bytes @ 0x14
   744     00D8                     	ds	2
   745     00DA                     main@i:
   746                           
   747                           ; 2 bytes @ 0x16
   748     00DA                     	ds	2
   749     00DC                     main@k:
   750                           
   751                           ; 1 bytes @ 0x18
   752     00DC                     	ds	1
   753     00DD                     main@intes:
   754                           
   755                           ; 2 bytes @ 0x19
   756     00DD                     	ds	2
   757     00DF                     main@c:
   758                           
   759                           ; 1 bytes @ 0x1B
   760     00DF                     	ds	1
   761                           
   762                           	psect	cstackCOMMON
   763     0070                     __pcstackCOMMON:
   764     0070                     ?_putch:
   765     0070                     ?_EEPROM_Read:	
   766                           ; 1 bytes @ 0x0
   767                           
   768     0070                     ?_Lcd_Port:	
   769                           ; 1 bytes @ 0x0
   770                           
   771     0070                     ?_Lcd_Cmd:	
   772                           ; 1 bytes @ 0x0
   773                           
   774     0070                     ?_Lcd_Clear:	
   775                           ; 1 bytes @ 0x0
   776                           
   777     0070                     ?_Lcd_Write_Char:	
   778                           ; 1 bytes @ 0x0
   779                           
   780     0070                     ?_Lcd_Init:	
   781                           ; 1 bytes @ 0x0
   782                           
   783     0070                     ?_UART_Write:	
   784                           ; 1 bytes @ 0x0
   785                           
   786     0070                     ?_UART_Read:	
   787                           ; 1 bytes @ 0x0
   788                           
   789     0070                     ?_UART_Data_Ready:	
   790                           ; 1 bytes @ 0x0
   791                           
   792     0070                     ?_ADC_Init:	
   793                           ; 1 bytes @ 0x0
   794                           
   795     0070                     ?_ISR:	
   796                           ; 1 bytes @ 0x0
   797                           
   798     0070                     ?_main:	
   799                           ; 1 bytes @ 0x0
   800                           
   801     0070                     putch@c:	
   802                           ; 1 bytes @ 0x0
   803                           
   804     0070                     ??_ISR:	
   805                           ; 1 bytes @ 0x0
   806                           
   807                           
   808                           ; 1 bytes @ 0x0
   809     0070                     	ds	2
   810     0072                     ?_EEPROM_Write:
   811     0072                     ?_fputc:	
   812                           ; 1 bytes @ 0x2
   813                           
   814     0072                     ?_ADC_Read:	
   815                           ; 2 bytes @ 0x2
   816                           
   817     0072                     ?___awdiv:	
   818                           ; 2 bytes @ 0x2
   819                           
   820     0072                     ?___awmod:	
   821                           ; 2 bytes @ 0x2
   822                           
   823     0072                     ?___lmul:	
   824                           ; 2 bytes @ 0x2
   825                           
   826     0072                     ?___aldiv:	
   827                           ; 4 bytes @ 0x2
   828                           
   829     0072                     EEPROM_Write@data:	
   830                           ; 4 bytes @ 0x2
   831                           
   832     0072                     EEPROM_Read@addr:	
   833                           ; 1 bytes @ 0x2
   834                           
   835     0072                     Lcd_Port@a:	
   836                           ; 1 bytes @ 0x2
   837                           
   838     0072                     UART_Write@d:	
   839                           ; 1 bytes @ 0x2
   840                           
   841     0072                     ___awdiv@divisor:	
   842                           ; 1 bytes @ 0x2
   843                           
   844     0072                     ___awmod@divisor:	
   845                           ; 2 bytes @ 0x2
   846                           
   847     0072                     fputc@c:	
   848                           ; 2 bytes @ 0x2
   849                           
   850     0072                     ___lmul@multiplier:	
   851                           ; 2 bytes @ 0x2
   852                           
   853     0072                     ___aldiv@divisor:	
   854                           ; 4 bytes @ 0x2
   855                           
   856     0072                     ??_putch:	
   857                           ; 4 bytes @ 0x2
   858                           
   859     0072                     ??_EEPROM_Read:	
   860                           ; 1 bytes @ 0x2
   861                           
   862     0072                     ??_Lcd_Port:	
   863                           ; 1 bytes @ 0x2
   864                           
   865     0072                     ??_UART_Write:	
   866                           ; 1 bytes @ 0x2
   867                           
   868     0072                     ??_UART_Read:	
   869                           ; 1 bytes @ 0x2
   870                           
   871     0072                     ??_UART_Data_Ready:	
   872                           ; 1 bytes @ 0x2
   873                           
   874     0072                     ??_ADC_Init:	
   875                           ; 1 bytes @ 0x2
   876                           
   877                           
   878                           ; 1 bytes @ 0x2
   879     0072                     	ds	1
   880     0073                     EEPROM_Write@addr:
   881     0073                     ??_EEPROM_Write:	
   882                           ; 1 bytes @ 0x3
   883                           
   884     0073                     ??_Lcd_Cmd:	
   885                           ; 1 bytes @ 0x3
   886                           
   887     0073                     ??_Lcd_Write_Char:	
   888                           ; 1 bytes @ 0x3
   889                           
   890                           
   891                           ; 1 bytes @ 0x3
   892     0073                     	ds	1
   893     0074                     Lcd_Write_Char@t:
   894     0074                     ___awdiv@dividend:	
   895                           ; 1 bytes @ 0x4
   896                           
   897     0074                     ___awmod@dividend:	
   898                           ; 2 bytes @ 0x4
   899                           
   900     0074                     fputc@fp:	
   901                           ; 2 bytes @ 0x4
   902                           
   903     0074                     ??_ADC_Read:	
   904                           ; 2 bytes @ 0x4
   905                           
   906                           
   907                           ; 1 bytes @ 0x4
   908     0074                     	ds	1
   909     0075                     Lcd_Cmd@a:
   910     0075                     Lcd_Write_Char@y:	
   911                           ; 1 bytes @ 0x5
   912                           
   913                           
   914                           ; 1 bytes @ 0x5
   915     0075                     	ds	1
   916     0076                     ?_Lcd_Set_Cursor:
   917     0076                     Lcd_Set_Cursor@b:	
   918                           ; 1 bytes @ 0x6
   919                           
   920     0076                     Lcd_Write_Char@a:	
   921                           ; 1 bytes @ 0x6
   922                           
   923     0076                     ___awdiv@counter:	
   924                           ; 1 bytes @ 0x6
   925                           
   926     0076                     ___awmod@counter:	
   927                           ; 1 bytes @ 0x6
   928                           
   929     0076                     ___lmul@multiplicand:	
   930                           ; 1 bytes @ 0x6
   931                           
   932     0076                     ___aldiv@dividend:	
   933                           ; 4 bytes @ 0x6
   934                           
   935     0076                     ??_Lcd_Clear:	
   936                           ; 4 bytes @ 0x6
   937                           
   938     0076                     ??_Lcd_Init:	
   939                           ; 1 bytes @ 0x6
   940                           
   941     0076                     ??___awdiv:	
   942                           ; 1 bytes @ 0x6
   943                           
   944     0076                     ??___awmod:	
   945                           ; 1 bytes @ 0x6
   946                           
   947                           
   948                           ; 1 bytes @ 0x6
   949     0076                     	ds	1
   950     0077                     ?_Lcd_Write_String:
   951     0077                     ___awdiv@sign:	
   952                           ; 1 bytes @ 0x7
   953                           
   954     0077                     ___awmod@sign:	
   955                           ; 1 bytes @ 0x7
   956                           
   957     0077                     Lcd_Write_String@a:	
   958                           ; 1 bytes @ 0x7
   959                           
   960     0077                     ??_Lcd_Set_Cursor:	
   961                           ; 2 bytes @ 0x7
   962                           
   963                           
   964                           ; 1 bytes @ 0x7
   965     0077                     	ds	1
   966     0078                     ?_abs:
   967     0078                     Lcd_Set_Cursor@z:	
   968                           ; 2 bytes @ 0x8
   969                           
   970     0078                     ___awdiv@quotient:	
   971                           ; 1 bytes @ 0x8
   972                           
   973     0078                     abs@a:	
   974                           ; 2 bytes @ 0x8
   975                           
   976                           
   977                           ; 2 bytes @ 0x8
   978     0078                     	ds	1
   979     0079                     Lcd_Set_Cursor@y:
   980     0079                     ??_Lcd_Write_String:	
   981                           ; 1 bytes @ 0x9
   982                           
   983                           
   984                           ; 1 bytes @ 0x9
   985     0079                     	ds	1
   986     007A                     Lcd_Set_Cursor@a:
   987     007A                     ??_abs:	
   988                           ; 1 bytes @ 0xA
   989                           
   990     007A                     ??___lmul:	
   991                           ; 1 bytes @ 0xA
   992                           
   993     007A                     ??___aldiv:	
   994                           ; 1 bytes @ 0xA
   995                           
   996                           
   997                           ; 1 bytes @ 0xA
   998     007A                     	ds	1
   999     007B                     Lcd_Set_Cursor@t:
  1000     007B                     ??___lldiv:	
  1001                           ; 1 bytes @ 0xB
  1002                           
  1003                           
  1004                           ; 1 bytes @ 0xB
  1005     007B                     	ds	1
  1006     007C                     ??_vfprintf:
  1007                           
  1008                           	psect	cstackBANK0
  1009     0020                     __pcstackBANK0:	
  1010                           ; 1 bytes @ 0xC
  1011                           
  1012     0020                     ___aldiv@counter:
  1013     0020                     Lcd_Write_String@i:	
  1014                           ; 1 bytes @ 0x0
  1015                           
  1016     0020                     ___lmul@product:	
  1017                           ; 2 bytes @ 0x0
  1018                           
  1019     0020                     ??_fputc:	
  1020                           ; 4 bytes @ 0x0
  1021                           
  1022                           
  1023                           ; 1 bytes @ 0x0
  1024     0020                     	ds	1
  1025     0021                     ___aldiv@sign:
  1026                           
  1027                           ; 1 bytes @ 0x1
  1028     0021                     	ds	1
  1029     0022                     ___aldiv@quotient:
  1030                           
  1031                           ; 4 bytes @ 0x2
  1032     0022                     	ds	2
  1033     0024                     ?___lldiv:
  1034     0024                     ___lldiv@divisor:	
  1035                           ; 4 bytes @ 0x4
  1036                           
  1037                           
  1038                           ; 4 bytes @ 0x4
  1039     0024                     	ds	2
  1040     0026                     ?_UART_Init:
  1041     0026                     UART_Init@baud:	
  1042                           ; 1 bytes @ 0x6
  1043                           
  1044                           
  1045                           ; 4 bytes @ 0x6
  1046     0026                     	ds	2
  1047     0028                     ___lldiv@dividend:
  1048                           
  1049                           ; 4 bytes @ 0x8
  1050     0028                     	ds	1
  1051     0029                     ?_vfpfcnvrt:
  1052     0029                     vfpfcnvrt@fp:	
  1053                           ; 1 bytes @ 0x9
  1054                           
  1055                           
  1056                           ; 2 bytes @ 0x9
  1057     0029                     	ds	1
  1058     002A                     ??_UART_Init:
  1059                           
  1060                           ; 1 bytes @ 0xA
  1061     002A                     	ds	1
  1062     002B                     vfpfcnvrt@fmt:
  1063                           
  1064                           ; 1 bytes @ 0xB
  1065     002B                     	ds	1
  1066     002C                     vfpfcnvrt@ap:
  1067     002C                     ___lldiv@quotient:	
  1068                           ; 1 bytes @ 0xC
  1069                           
  1070                           
  1071                           ; 4 bytes @ 0xC
  1072     002C                     	ds	1
  1073     002D                     ??_vfpfcnvrt:
  1074                           
  1075                           ; 1 bytes @ 0xD
  1076     002D                     	ds	3
  1077     0030                     ___lldiv@counter:
  1078                           
  1079                           ; 1 bytes @ 0x10
  1080     0030                     	ds	1
  1081     0031                     vfpfcnvrt@done:
  1082                           
  1083                           ; 1 bytes @ 0x11
  1084     0031                     	ds	1
  1085     0032                     vfpfcnvrt@cp:
  1086                           
  1087                           ; 2 bytes @ 0x12
  1088     0032                     	ds	2
  1089     0034                     vfpfcnvrt@convarg:
  1090                           
  1091                           ; 4 bytes @ 0x14
  1092     0034                     	ds	4
  1093     0038                     vfpfcnvrt@c:
  1094                           
  1095                           ; 1 bytes @ 0x18
  1096     0038                     	ds	1
  1097     0039                     ?_vfprintf:
  1098     0039                     vfprintf@fp:	
  1099                           ; 2 bytes @ 0x19
  1100                           
  1101                           
  1102                           ; 2 bytes @ 0x19
  1103     0039                     	ds	2
  1104     003B                     vfprintf@fmt:
  1105                           
  1106                           ; 2 bytes @ 0x1B
  1107     003B                     	ds	2
  1108     003D                     vfprintf@ap:
  1109                           
  1110                           ; 1 bytes @ 0x1D
  1111     003D                     	ds	1
  1112     003E                     vfprintf@cfmt:
  1113                           
  1114                           ; 2 bytes @ 0x1E
  1115     003E                     	ds	2
  1116     0040                     ?_sprintf:
  1117     0040                     sprintf@s:	
  1118                           ; 2 bytes @ 0x20
  1119                           
  1120                           
  1121                           ; 1 bytes @ 0x20
  1122     0040                     	ds	1
  1123     0041                     sprintf@fmt:
  1124                           
  1125                           ; 2 bytes @ 0x21
  1126     0041                     	ds	4
  1127     0045                     ??_sprintf:
  1128                           
  1129                           ; 1 bytes @ 0x25
  1130     0045                     	ds	1
  1131     0046                     sprintf@ap:
  1132                           
  1133                           ; 1 bytes @ 0x26
  1134     0046                     	ds	1
  1135     0047                     sprintf@f:
  1136                           
  1137                           ; 11 bytes @ 0x27
  1138     0047                     	ds	11
  1139     0052                     ??_main:
  1140                           
  1141                           ; 1 bytes @ 0x32
  1142     0052                     	ds	3
  1143                           
  1144                           	psect	maintext
  1145     0023                     __pmaintext:	
  1146 ;;
  1147 ;;Main: autosize = 0, tempsize = 3, incstack = 0, save=0
  1148 ;;
  1149 ;; *************** function _main *****************
  1150 ;; Defined at:
  1151 ;;		line 62 in file "fuzzer.c"
  1152 ;; Parameters:    Size  Location     Type
  1153 ;;		None
  1154 ;; Auto vars:     Size  Location     Type
  1155 ;;  c               1   27[BANK1 ] unsigned char 
  1156 ;;  s              20    0[BANK1 ] unsigned char [20]
  1157 ;;  intes           2   25[BANK1 ] int 
  1158 ;;  pot             2   20[BANK1 ] unsigned int 
  1159 ;;  k               1   24[BANK1 ] unsigned char 
  1160 ;;  i               2   22[BANK1 ] int 
  1161 ;; Return value:  Size  Location     Type
  1162 ;;                  1    wreg      void 
  1163 ;; Registers used:
  1164 ;;		wreg, fsr0l, fsr0h, status,2, status,0, pclath, btemp1, cstack
  1165 ;; Tracked objects:
  1166 ;;		On entry : B00/0
  1167 ;;		On exit  : 0/0
  1168 ;;		Unchanged: 0/0
  1169 ;; Data sizes:     COMMON   BANK0   BANK1   BANK3   BANK2
  1170 ;;      Params:         0       0       0       0       0
  1171 ;;      Locals:         0       0      28       0       0
  1172 ;;      Temps:          0       3       0       0       0
  1173 ;;      Totals:         0       3      28       0       0
  1174 ;;Total ram usage:       31 bytes
  1175 ;; Hardware stack levels required when called: 6
  1176 ;; This function calls:
  1177 ;;		_ADC_Init
  1178 ;;		_ADC_Read
  1179 ;;		_EEPROM_Read
  1180 ;;		_EEPROM_Write
  1181 ;;		_Lcd_Clear
  1182 ;;		_Lcd_Init
  1183 ;;		_Lcd_Set_Cursor
  1184 ;;		_Lcd_Write_Char
  1185 ;;		_Lcd_Write_String
  1186 ;;		_UART_Data_Ready
  1187 ;;		_UART_Init
  1188 ;;		_UART_Read
  1189 ;;		_UART_Write
  1190 ;;		___lldiv
  1191 ;;		___lmul
  1192 ;;		_sprintf
  1193 ;; This function is called by:
  1194 ;;		Startup code after reset
  1195 ;; This function uses a non-reentrant model
  1196 ;;
  1197                           
  1198     0023                     _main:	
  1199                           ;psect for function _main
  1200                           
  1201     0023                     l1952:	
  1202                           ;incstack = 0
  1203                           ; Regs used in _main: [wreg-fsr0h+status,2+status,0+pclath+btemp1+cstack]
  1204                           
  1205                           
  1206                           ;fuzzer.c: 63:     TRISD=0;
  1207     0023  1683               	bsf	3,5	;RP0=1, select bank1
  1208     0024  1303               	bcf	3,6	;RP1=0, select bank1
  1209     0025  0188               	clrf	8	;volatile
  1210     0026                     l1954:
  1211                           
  1212                           ;fuzzer.c: 64:     TRISB=0xFF;
  1213     0026  30FF               	movlw	255
  1214     0027  0086               	movwf	6	;volatile
  1215     0028                     l1956:
  1216                           
  1217                           ;fuzzer.c: 65:     OPTION_REGbits.nRBPU=0;
  1218     0028  1381               	bcf	1,7	;volatile
  1219     0029                     l1958:
  1220                           
  1221                           ;fuzzer.c: 66:     OPTION_REGbits.INTEDG=0;
  1222     0029  1301               	bcf	1,6	;volatile
  1223     002A                     l1960:
  1224                           
  1225                           ;fuzzer.c: 67:     INTCONbits.GIE=1;
  1226     002A  178B               	bsf	11,7	;volatile
  1227     002B                     l1962:
  1228                           
  1229                           ;fuzzer.c: 68:     INTCONbits.INTE=1;
  1230     002B  160B               	bsf	11,4	;volatile
  1231     002C                     l1964:
  1232                           
  1233                           ;fuzzer.c: 69:     INTCONbits.PEIE=1;
  1234     002C  170B               	bsf	11,6	;volatile
  1235     002D                     l1966:
  1236                           
  1237                           ;fuzzer.c: 71:     UART_Init(9600);
  1238     002D  3000               	movlw	0
  1239     002E  1283               	bcf	3,5	;RP0=0, select bank0
  1240     002F  1303               	bcf	3,6	;RP1=0, select bank0
  1241     0030  00A9               	movwf	UART_Init@baud+3
  1242     0031  3000               	movlw	0
  1243     0032  00A8               	movwf	UART_Init@baud+2
  1244     0033  3025               	movlw	37
  1245     0034  00A7               	movwf	UART_Init@baud+1
  1246     0035  3080               	movlw	128
  1247     0036  00A6               	movwf	UART_Init@baud
  1248     0037  120A  158A  2456  120A  118A  	fcall	_UART_Init
  1249     003C                     l1968:
  1250                           
  1251                           ;fuzzer.c: 72:     Lcd_Init();
  1252     003C  120A  158A  25A0  120A  118A  	fcall	_Lcd_Init
  1253     0041                     l1970:
  1254                           
  1255                           ;fuzzer.c: 73:     ADC_Init();
  1256     0041  120A  158A  234A  120A  118A  	fcall	_ADC_Init
  1257     0046                     l1972:
  1258                           
  1259                           ;fuzzer.c: 74:     Lcd_Clear();
  1260     0046  120A  158A  2353  120A  118A  	fcall	_Lcd_Clear
  1261     004B                     l1974:
  1262                           
  1263                           ;fuzzer.c: 76:     Lcd_Set_Cursor(1,1);
  1264     004B  01F6               	clrf	Lcd_Set_Cursor@b
  1265     004C  0AF6               	incf	Lcd_Set_Cursor@b,f
  1266     004D  3001               	movlw	1
  1267     004E  120A  158A  24C1  120A  118A  	fcall	_Lcd_Set_Cursor
  1268     0053                     l1976:
  1269                           
  1270                           ;fuzzer.c: 77:     Lcd_Write_String("CAN ATTACK SIMULATOR");
  1271     0053  302F               	movlw	low (STR_1| (0+32768))
  1272     0054  00F7               	movwf	Lcd_Write_String@a
  1273     0055  3085               	movlw	high (STR_1| (0+32768))
  1274     0056  00F8               	movwf	Lcd_Write_String@a+1
  1275     0057  120A  118A  27BA  120A  118A  	fcall	_Lcd_Write_String
  1276     005C                     l1978:
  1277                           
  1278                           ;fuzzer.c: 78:     Lcd_Set_Cursor(4,1);
  1279     005C  01F6               	clrf	Lcd_Set_Cursor@b
  1280     005D  0AF6               	incf	Lcd_Set_Cursor@b,f
  1281     005E  3004               	movlw	4
  1282     005F  120A  158A  24C1  120A  118A  	fcall	_Lcd_Set_Cursor
  1283     0064                     l1980:
  1284                           
  1285                           ;fuzzer.c: 79:     for(int i=0;i<20;i++){
  1286     0064  1683               	bsf	3,5	;RP0=1, select bank1
  1287     0065  1303               	bcf	3,6	;RP1=0, select bank1
  1288     0066  01DA               	clrf	main@i^(0+128)
  1289     0067  01DB               	clrf	(main@i+1)^(0+128)
  1290     0068                     l1986:
  1291                           
  1292                           ;fuzzer.c: 80:         Lcd_Write_Char(0xFF);
  1293     0068  30FF               	movlw	255
  1294     0069  120A  158A  248A  120A  118A  	fcall	_Lcd_Write_Char
  1295     006E                     l1988:
  1296                           
  1297                           ;fuzzer.c: 81:         _delay((unsigned long)((50)*(20000000/4000.0)));
  1298     006E  3002               	movlw	2
  1299     006F  1283               	bcf	3,5	;RP0=0, select bank0
  1300     0070  1303               	bcf	3,6	;RP1=0, select bank0
  1301     0071  00D4               	movwf	??_main+2
  1302     0072  3045               	movlw	69
  1303     0073  00D3               	movwf	??_main+1
  1304     0074  30A9               	movlw	169
  1305     0075  00D2               	movwf	??_main
  1306     0076                     u2277:
  1307     0076  0BD2               	decfsz	??_main,f
  1308     0077  2876               	goto	u2277
  1309     0078  0BD3               	decfsz	??_main+1,f
  1310     0079  2876               	goto	u2277
  1311     007A  0BD4               	decfsz	??_main+2,f
  1312     007B  2876               	goto	u2277
  1313     007C  0064               	clrwdt	;# 
  1314     007D                     l1990:
  1315                           
  1316                           ;fuzzer.c: 83:     }
  1317     007D  3001               	movlw	1
  1318     007E  1683               	bsf	3,5	;RP0=1, select bank1
  1319     007F  1303               	bcf	3,6	;RP1=0, select bank1
  1320     0080  07DA               	addwf	main@i^(0+128),f
  1321     0081  1803               	skipnc
  1322     0082  0ADB               	incf	(main@i+1)^(0+128),f
  1323     0083  3000               	movlw	0
  1324     0084  07DB               	addwf	(main@i+1)^(0+128),f
  1325     0085                     l1992:
  1326     0085  085B               	movf	(main@i+1)^(0+128),w
  1327     0086  3A80               	xorlw	128
  1328     0087  00FF               	movwf	btemp1
  1329     0088  3080               	movlw	128
  1330     0089  027F               	subwf	btemp1,w
  1331     008A  1D03               	skipz
  1332     008B  288E               	goto	u1955
  1333     008C  3014               	movlw	20
  1334     008D  025A               	subwf	main@i^(0+128),w
  1335     008E                     u1955:
  1336     008E  1C03               	skipc
  1337     008F  2891               	goto	u1951
  1338     0090  2892               	goto	u1950
  1339     0091                     u1951:
  1340     0091  2868               	goto	l1986
  1341     0092                     u1950:
  1342     0092                     l1994:
  1343                           
  1344                           ;fuzzer.c: 84:     Lcd_Clear();
  1345     0092  120A  158A  2353  120A  118A  	fcall	_Lcd_Clear
  1346                           
  1347                           ;fuzzer.c: 86:     Lcd_Set_Cursor(1,1);
  1348     0097  01F6               	clrf	Lcd_Set_Cursor@b
  1349     0098  0AF6               	incf	Lcd_Set_Cursor@b,f
  1350     0099  3001               	movlw	1
  1351     009A  120A  158A  24C1  120A  118A  	fcall	_Lcd_Set_Cursor
  1352     009F                     l1996:
  1353                           
  1354                           ;fuzzer.c: 87:     Lcd_Write_String("CAN ATTACK SIMULATOR");
  1355     009F  302F               	movlw	low (STR_1| (0+32768))
  1356     00A0  00F7               	movwf	Lcd_Write_String@a
  1357     00A1  3085               	movlw	high (STR_1| (0+32768))
  1358     00A2  00F8               	movwf	Lcd_Write_String@a+1
  1359     00A3  120A  118A  27BA  120A  118A  	fcall	_Lcd_Write_String
  1360     00A8                     l1998:
  1361                           
  1362                           ;fuzzer.c: 88:     Lcd_Set_Cursor(4,1);
  1363     00A8  01F6               	clrf	Lcd_Set_Cursor@b
  1364     00A9  0AF6               	incf	Lcd_Set_Cursor@b,f
  1365     00AA  3004               	movlw	4
  1366     00AB  120A  158A  24C1  120A  118A  	fcall	_Lcd_Set_Cursor
  1367                           
  1368                           ;fuzzer.c: 89:     Lcd_Write_String("[MENU] TO START");
  1369     00B0  302F               	movlw	low (STR_3| (0+32768))
  1370     00B1  00F7               	movwf	Lcd_Write_String@a
  1371     00B2  3086               	movlw	high (STR_3| (0+32768))
  1372     00B3  00F8               	movwf	Lcd_Write_String@a+1
  1373     00B4  120A  118A  27BA  120A  118A  	fcall	_Lcd_Write_String
  1374     00B9                     l160:	
  1375                           ;fuzzer.c: 91:     while(1) {
  1376                           
  1377     00B9  0064               	clrwdt	;# 
  1378     00BA                     l2000:
  1379                           
  1380                           ;fuzzer.c: 93:         if(abortar) {
  1381     00BA  1683               	bsf	3,5	;RP0=1, select bank1
  1382     00BB  1303               	bcf	3,6	;RP1=0, select bank1
  1383     00BC  0842               	movf	_abortar^(0+128),w	;volatile
  1384     00BD  0443               	iorwf	(_abortar+1)^(0+128),w	;volatile
  1385     00BE  1903               	btfsc	3,2
  1386     00BF  28C1               	goto	u1961
  1387     00C0  28C2               	goto	u1960
  1388     00C1                     u1961:
  1389     00C1  2914               	goto	l2022
  1390     00C2                     u1960:
  1391     00C2                     l2002:
  1392                           
  1393                           ;fuzzer.c: 94:             Lcd_Clear();
  1394     00C2  120A  158A  2353  120A  118A  	fcall	_Lcd_Clear
  1395                           
  1396                           ;fuzzer.c: 95:             Lcd_Set_Cursor(2,1);
  1397     00C7  01F6               	clrf	Lcd_Set_Cursor@b
  1398     00C8  0AF6               	incf	Lcd_Set_Cursor@b,f
  1399     00C9  3002               	movlw	2
  1400     00CA  120A  158A  24C1  120A  118A  	fcall	_Lcd_Set_Cursor
  1401     00CF                     l2004:
  1402                           
  1403                           ;fuzzer.c: 96:             Lcd_Write_String("!!! ABORTED !!!");
  1404     00CF  30EF               	movlw	low (STR_4| (0+32768))
  1405     00D0  00F7               	movwf	Lcd_Write_String@a
  1406     00D1  3085               	movlw	high (STR_4| (0+32768))
  1407     00D2  00F8               	movwf	Lcd_Write_String@a+1
  1408     00D3  120A  118A  27BA  120A  118A  	fcall	_Lcd_Write_String
  1409     00D8                     l2006:
  1410                           
  1411                           ;fuzzer.c: 97:             _delay((unsigned long)((1000)*(20000000/4000.0)));
  1412     00D8  301A               	movlw	26
  1413     00D9  1283               	bcf	3,5	;RP0=0, select bank0
  1414     00DA  1303               	bcf	3,6	;RP1=0, select bank0
  1415     00DB  00D4               	movwf	??_main+2
  1416     00DC  305E               	movlw	94
  1417     00DD  00D3               	movwf	??_main+1
  1418     00DE  306D               	movlw	109
  1419     00DF  00D2               	movwf	??_main
  1420     00E0                     u2287:
  1421     00E0  0BD2               	decfsz	??_main,f
  1422     00E1  28E0               	goto	u2287
  1423     00E2  0BD3               	decfsz	??_main+1,f
  1424     00E3  28E0               	goto	u2287
  1425     00E4  0BD4               	decfsz	??_main+2,f
  1426     00E5  28E0               	goto	u2287
  1427     00E6  28E7               	nop2
  1428     00E7                     l2008:
  1429                           
  1430                           ;fuzzer.c: 98:             abortar=0;
  1431     00E7  1683               	bsf	3,5	;RP0=1, select bank1
  1432     00E8  1303               	bcf	3,6	;RP1=0, select bank1
  1433     00E9  01C2               	clrf	_abortar^(0+128)	;volatile
  1434     00EA  01C3               	clrf	(_abortar+1)^(0+128)	;volatile
  1435     00EB                     l2010:
  1436                           
  1437                           ;fuzzer.c: 99:             menu=0;
  1438     00EB  01C0               	clrf	_menu^(0+128)
  1439     00EC  01C1               	clrf	(_menu+1)^(0+128)
  1440     00ED                     l2012:
  1441                           
  1442                           ;fuzzer.c: 100:             Lcd_Clear();
  1443     00ED  120A  158A  2353  120A  118A  	fcall	_Lcd_Clear
  1444     00F2                     l2014:
  1445                           
  1446                           ;fuzzer.c: 101:             Lcd_Set_Cursor(1,1);
  1447     00F2  01F6               	clrf	Lcd_Set_Cursor@b
  1448     00F3  0AF6               	incf	Lcd_Set_Cursor@b,f
  1449     00F4  3001               	movlw	1
  1450     00F5  120A  158A  24C1  120A  118A  	fcall	_Lcd_Set_Cursor
  1451     00FA                     l2016:
  1452                           
  1453                           ;fuzzer.c: 102:             Lcd_Write_String("CAN ATTACK SIMULATOR");
  1454     00FA  302F               	movlw	low (STR_1| (0+32768))
  1455     00FB  00F7               	movwf	Lcd_Write_String@a
  1456     00FC  3085               	movlw	high (STR_1| (0+32768))
  1457     00FD  00F8               	movwf	Lcd_Write_String@a+1
  1458     00FE  120A  118A  27BA  120A  118A  	fcall	_Lcd_Write_String
  1459     0103                     l2018:
  1460                           
  1461                           ;fuzzer.c: 103:             Lcd_Set_Cursor(4,1);
  1462     0103  01F6               	clrf	Lcd_Set_Cursor@b
  1463     0104  0AF6               	incf	Lcd_Set_Cursor@b,f
  1464     0105  3004               	movlw	4
  1465     0106  120A  158A  24C1  120A  118A  	fcall	_Lcd_Set_Cursor
  1466     010B                     l2020:
  1467                           
  1468                           ;fuzzer.c: 104:             Lcd_Write_String("[MENU] TO START");
  1469     010B  302F               	movlw	low (STR_3| (0+32768))
  1470     010C  00F7               	movwf	Lcd_Write_String@a
  1471     010D  3086               	movlw	high (STR_3| (0+32768))
  1472     010E  00F8               	movwf	Lcd_Write_String@a+1
  1473     010F  120A  118A  27BA  120A  118A  	fcall	_Lcd_Write_String
  1474     0114                     l2022:
  1475                           
  1476                           ;fuzzer.c: 107:         if(PORTBbits.RB1 == 0) {
  1477     0114  1283               	bcf	3,5	;RP0=0, select bank0
  1478     0115  1303               	bcf	3,6	;RP1=0, select bank0
  1479     0116  1886               	btfsc	6,1	;volatile
  1480     0117  2919               	goto	u1971
  1481     0118  291A               	goto	u1970
  1482     0119                     u1971:
  1483     0119  2A0F               	goto	l2072
  1484     011A                     u1970:
  1485     011A                     l2024:
  1486                           
  1487                           ;fuzzer.c: 108:             _delay((unsigned long)((200)*(20000000/4000.0)));
  1488     011A  3006               	movlw	6
  1489     011B  1283               	bcf	3,5	;RP0=0, select bank0
  1490     011C  1303               	bcf	3,6	;RP1=0, select bank0
  1491     011D  00D4               	movwf	??_main+2
  1492     011E  3013               	movlw	19
  1493     011F  00D3               	movwf	??_main+1
  1494     0120  30AD               	movlw	173
  1495     0121  00D2               	movwf	??_main
  1496     0122                     u2297:
  1497     0122  0BD2               	decfsz	??_main,f
  1498     0123  2922               	goto	u2297
  1499     0124  0BD3               	decfsz	??_main+1,f
  1500     0125  2922               	goto	u2297
  1501     0126  0BD4               	decfsz	??_main+2,f
  1502     0127  2922               	goto	u2297
  1503                           
  1504                           ;fuzzer.c: 109:             while(PORTBbits.RB1==0) __asm("clrwdt");
  1505     0128  292A               	goto	l163
  1506     0129                     l164:
  1507     0129  0064               	clrwdt	;# 
  1508     012A                     l163:
  1509     012A  1283               	bcf	3,5	;RP0=0, select bank0
  1510     012B  1303               	bcf	3,6	;RP1=0, select bank0
  1511     012C  1C86               	btfss	6,1	;volatile
  1512     012D  292F               	goto	u1981
  1513     012E  2930               	goto	u1980
  1514     012F                     u1981:
  1515     012F  2929               	goto	l164
  1516     0130                     u1980:
  1517     0130                     l2026:
  1518                           
  1519                           ;fuzzer.c: 110:             menu++;
  1520     0130  3001               	movlw	1
  1521     0131  1683               	bsf	3,5	;RP0=1, select bank1
  1522     0132  1303               	bcf	3,6	;RP1=0, select bank1
  1523     0133  07C0               	addwf	_menu^(0+128),f
  1524     0134  1803               	skipnc
  1525     0135  0AC1               	incf	(_menu+1)^(0+128),f
  1526     0136  3000               	movlw	0
  1527     0137  07C1               	addwf	(_menu+1)^(0+128),f
  1528     0138                     l2028:
  1529                           
  1530                           ;fuzzer.c: 111:             if(menu>3) menu=1;
  1531     0138  0841               	movf	(_menu+1)^(0+128),w
  1532     0139  3A80               	xorlw	128
  1533     013A  00FF               	movwf	btemp1
  1534     013B  3080               	movlw	128
  1535     013C  027F               	subwf	btemp1,w
  1536     013D  1D03               	skipz
  1537     013E  2941               	goto	u1995
  1538     013F  3004               	movlw	4
  1539     0140  0240               	subwf	_menu^(0+128),w
  1540     0141                     u1995:
  1541     0141  1C03               	skipc
  1542     0142  2944               	goto	u1991
  1543     0143  2945               	goto	u1990
  1544     0144                     u1991:
  1545     0144  294B               	goto	l2032
  1546     0145                     u1990:
  1547     0145                     l2030:
  1548     0145  3001               	movlw	1
  1549     0146  1683               	bsf	3,5	;RP0=1, select bank1
  1550     0147  1303               	bcf	3,6	;RP1=0, select bank1
  1551     0148  00C0               	movwf	_menu^(0+128)
  1552     0149  3000               	movlw	0
  1553     014A  00C1               	movwf	(_menu^(0+128)+1)
  1554     014B                     l2032:
  1555                           
  1556                           ;fuzzer.c: 113:             Lcd_Set_Cursor(2,1);
  1557     014B  01F6               	clrf	Lcd_Set_Cursor@b
  1558     014C  0AF6               	incf	Lcd_Set_Cursor@b,f
  1559     014D  3002               	movlw	2
  1560     014E  120A  158A  24C1  120A  118A  	fcall	_Lcd_Set_Cursor
  1561     0153                     l2034:
  1562                           
  1563                           ;fuzzer.c: 114:             Lcd_Write_String("                    ");
  1564     0153  3003               	movlw	low ((STR_33+3)| (0+32768))
  1565     0154  00F7               	movwf	Lcd_Write_String@a
  1566     0155  3085               	movlw	high ((STR_33+3)| (0+32768))
  1567     0156  00F8               	movwf	Lcd_Write_String@a+1
  1568     0157  120A  118A  27BA  120A  118A  	fcall	_Lcd_Write_String
  1569     015C                     l2036:
  1570                           
  1571                           ;fuzzer.c: 115:             Lcd_Set_Cursor(3,1);
  1572     015C  01F6               	clrf	Lcd_Set_Cursor@b
  1573     015D  0AF6               	incf	Lcd_Set_Cursor@b,f
  1574     015E  3003               	movlw	3
  1575     015F  120A  158A  24C1  120A  118A  	fcall	_Lcd_Set_Cursor
  1576     0164                     l2038:
  1577                           
  1578                           ;fuzzer.c: 116:             Lcd_Write_String("                    ");
  1579     0164  3003               	movlw	low ((STR_33+3)| (0+32768))
  1580     0165  00F7               	movwf	Lcd_Write_String@a
  1581     0166  3085               	movlw	high ((STR_33+3)| (0+32768))
  1582     0167  00F8               	movwf	Lcd_Write_String@a+1
  1583     0168  120A  118A  27BA  120A  118A  	fcall	_Lcd_Write_String
  1584     016D                     l2040:
  1585                           
  1586                           ;fuzzer.c: 117:             Lcd_Set_Cursor(4,1);
  1587     016D  01F6               	clrf	Lcd_Set_Cursor@b
  1588     016E  0AF6               	incf	Lcd_Set_Cursor@b,f
  1589     016F  3004               	movlw	4
  1590     0170  120A  158A  24C1  120A  118A  	fcall	_Lcd_Set_Cursor
  1591     0175                     l2042:
  1592                           
  1593                           ;fuzzer.c: 118:             Lcd_Write_String("                    ");
  1594     0175  3003               	movlw	low ((STR_33+3)| (0+32768))
  1595     0176  00F7               	movwf	Lcd_Write_String@a
  1596     0177  3085               	movlw	high ((STR_33+3)| (0+32768))
  1597     0178  00F8               	movwf	Lcd_Write_String@a+1
  1598     0179  120A  118A  27BA  120A  118A  	fcall	_Lcd_Write_String
  1599     017E                     l2044:
  1600                           
  1601                           ;fuzzer.c: 120:             if(menu==1) {
  1602     017E  1683               	bsf	3,5	;RP0=1, select bank1
  1603     017F  1303               	bcf	3,6	;RP1=0, select bank1
  1604     0180  0340               	decf	_menu^(0+128),w
  1605     0181  0441               	iorwf	(_menu+1)^(0+128),w
  1606     0182  1D03               	btfss	3,2
  1607     0183  2985               	goto	u2001
  1608     0184  2986               	goto	u2000
  1609     0185                     u2001:
  1610     0185  29A8               	goto	l2052
  1611     0186                     u2000:
  1612     0186                     l2046:
  1613                           
  1614                           ;fuzzer.c: 121:                 Lcd_Set_Cursor(2,1);
  1615     0186  01F6               	clrf	Lcd_Set_Cursor@b
  1616     0187  0AF6               	incf	Lcd_Set_Cursor@b,f
  1617     0188  3002               	movlw	2
  1618     0189  120A  158A  24C1  120A  118A  	fcall	_Lcd_Set_Cursor
  1619     018E                     l2048:
  1620                           
  1621                           ;fuzzer.c: 122:                 Lcd_Write_String("> 1. SNIFFER KEY");
  1622     018E  30CD               	movlw	low (STR_10| (0+32768))
  1623     018F  00F7               	movwf	Lcd_Write_String@a
  1624     0190  3085               	movlw	high (STR_10| (0+32768))
  1625     0191  00F8               	movwf	Lcd_Write_String@a+1
  1626     0192  120A  118A  27BA  120A  118A  	fcall	_Lcd_Write_String
  1627     0197                     l2050:
  1628                           
  1629                           ;fuzzer.c: 123:                 Lcd_Set_Cursor(4,1);
  1630     0197  01F6               	clrf	Lcd_Set_Cursor@b
  1631     0198  0AF6               	incf	Lcd_Set_Cursor@b,f
  1632     0199  3004               	movlw	4
  1633     019A  120A  158A  24C1  120A  118A  	fcall	_Lcd_Set_Cursor
  1634                           
  1635                           ;fuzzer.c: 124:                 Lcd_Write_String("[SEL] TO RECORD");
  1636     019F  30FF               	movlw	low (STR_11| (0+32768))
  1637     01A0  00F7               	movwf	Lcd_Write_String@a
  1638     01A1  3085               	movlw	high (STR_11| (0+32768))
  1639     01A2  00F8               	movwf	Lcd_Write_String@a+1
  1640     01A3  120A  118A  27BA  120A  118A  	fcall	_Lcd_Write_String
  1641     01A8                     l2052:
  1642                           
  1643                           ;fuzzer.c: 126:             if(menu==2) {
  1644     01A8  3002               	movlw	2
  1645     01A9  1683               	bsf	3,5	;RP0=1, select bank1
  1646     01AA  1303               	bcf	3,6	;RP1=0, select bank1
  1647     01AB  0640               	xorwf	_menu^(0+128),w
  1648     01AC  0441               	iorwf	(_menu+1)^(0+128),w
  1649     01AD  1D03               	btfss	3,2
  1650     01AE  29B0               	goto	u2011
  1651     01AF  29B1               	goto	u2010
  1652     01B0                     u2011:
  1653     01B0  29D3               	goto	l2060
  1654     01B1                     u2010:
  1655     01B1                     l2054:
  1656                           
  1657                           ;fuzzer.c: 127:                 Lcd_Set_Cursor(2,1);
  1658     01B1  01F6               	clrf	Lcd_Set_Cursor@b
  1659     01B2  0AF6               	incf	Lcd_Set_Cursor@b,f
  1660     01B3  3002               	movlw	2
  1661     01B4  120A  158A  24C1  120A  118A  	fcall	_Lcd_Set_Cursor
  1662     01B9                     l2056:
  1663                           
  1664                           ;fuzzer.c: 128:                 Lcd_Write_String("> 2. REPLAY KEY");
  1665     01B9  303F               	movlw	low (STR_12| (0+32768))
  1666     01BA  00F7               	movwf	Lcd_Write_String@a
  1667     01BB  3086               	movlw	high (STR_12| (0+32768))
  1668     01BC  00F8               	movwf	Lcd_Write_String@a+1
  1669     01BD  120A  118A  27BA  120A  118A  	fcall	_Lcd_Write_String
  1670     01C2                     l2058:
  1671                           
  1672                           ;fuzzer.c: 129:                 Lcd_Set_Cursor(4,1);
  1673     01C2  01F6               	clrf	Lcd_Set_Cursor@b
  1674     01C3  0AF6               	incf	Lcd_Set_Cursor@b,f
  1675     01C4  3004               	movlw	4
  1676     01C5  120A  158A  24C1  120A  118A  	fcall	_Lcd_Set_Cursor
  1677                           
  1678                           ;fuzzer.c: 130:                 Lcd_Write_String("[SEL] TO INJECT");
  1679     01CA  301F               	movlw	low (STR_13| (0+32768))
  1680     01CB  00F7               	movwf	Lcd_Write_String@a
  1681     01CC  3086               	movlw	high (STR_13| (0+32768))
  1682     01CD  00F8               	movwf	Lcd_Write_String@a+1
  1683     01CE  120A  118A  27BA  120A  118A  	fcall	_Lcd_Write_String
  1684     01D3                     l2060:
  1685                           
  1686                           ;fuzzer.c: 132:             if(menu==3) {
  1687     01D3  3003               	movlw	3
  1688     01D4  1683               	bsf	3,5	;RP0=1, select bank1
  1689     01D5  1303               	bcf	3,6	;RP1=0, select bank1
  1690     01D6  0640               	xorwf	_menu^(0+128),w
  1691     01D7  0441               	iorwf	(_menu+1)^(0+128),w
  1692     01D8  1D03               	btfss	3,2
  1693     01D9  29DB               	goto	u2021
  1694     01DA  29DC               	goto	u2020
  1695     01DB                     u2021:
  1696     01DB  2A0F               	goto	l2072
  1697     01DC                     u2020:
  1698     01DC                     l2062:
  1699                           
  1700                           ;fuzzer.c: 133:                 Lcd_Set_Cursor(2,1);
  1701     01DC  01F6               	clrf	Lcd_Set_Cursor@b
  1702     01DD  0AF6               	incf	Lcd_Set_Cursor@b,f
  1703     01DE  3002               	movlw	2
  1704     01DF  120A  158A  24C1  120A  118A  	fcall	_Lcd_Set_Cursor
  1705     01E4                     l2064:
  1706                           
  1707                           ;fuzzer.c: 134:                 Lcd_Write_String("> 3. DoS ATTACK");
  1708     01E4  300F               	movlw	low (STR_14| (0+32768))
  1709     01E5  00F7               	movwf	Lcd_Write_String@a
  1710     01E6  3086               	movlw	high (STR_14| (0+32768))
  1711     01E7  00F8               	movwf	Lcd_Write_String@a+1
  1712     01E8  120A  118A  27BA  120A  118A  	fcall	_Lcd_Write_String
  1713     01ED                     l2066:
  1714                           
  1715                           ;fuzzer.c: 135:                 Lcd_Set_Cursor(3,1);
  1716     01ED  01F6               	clrf	Lcd_Set_Cursor@b
  1717     01EE  0AF6               	incf	Lcd_Set_Cursor@b,f
  1718     01EF  3003               	movlw	3
  1719     01F0  120A  158A  24C1  120A  118A  	fcall	_Lcd_Set_Cursor
  1720                           
  1721                           ;fuzzer.c: 136:                 Lcd_Write_String("USE POT TO FLOOD");
  1722     01F5  30BC               	movlw	low (STR_15| (0+32768))
  1723     01F6  00F7               	movwf	Lcd_Write_String@a
  1724     01F7  3085               	movlw	high (STR_15| (0+32768))
  1725     01F8  00F8               	movwf	Lcd_Write_String@a+1
  1726     01F9  120A  118A  27BA  120A  118A  	fcall	_Lcd_Write_String
  1727     01FE                     l2068:
  1728                           
  1729                           ;fuzzer.c: 137:                 Lcd_Set_Cursor(4,1);
  1730     01FE  01F6               	clrf	Lcd_Set_Cursor@b
  1731     01FF  0AF6               	incf	Lcd_Set_Cursor@b,f
  1732     0200  3004               	movlw	4
  1733     0201  120A  158A  24C1  120A  118A  	fcall	_Lcd_Set_Cursor
  1734     0206                     l2070:
  1735                           
  1736                           ;fuzzer.c: 138:                 Lcd_Write_String("[SEL] TO START");
  1737     0206  304F               	movlw	low (STR_16| (0+32768))
  1738     0207  00F7               	movwf	Lcd_Write_String@a
  1739     0208  3086               	movlw	high (STR_16| (0+32768))
  1740     0209  00F8               	movwf	Lcd_Write_String@a+1
  1741     020A  120A  118A  27BA  120A  118A  	fcall	_Lcd_Write_String
  1742     020F                     l2072:
  1743                           
  1744                           ;fuzzer.c: 142:         if(PORTBbits.RB2 == 0 && !abortar) {
  1745     020F  1283               	bcf	3,5	;RP0=0, select bank0
  1746     0210  1303               	bcf	3,6	;RP1=0, select bank0
  1747     0211  1906               	btfsc	6,2	;volatile
  1748     0212  2A14               	goto	u2031
  1749     0213  2A15               	goto	u2030
  1750     0214                     u2031:
  1751     0214  28B9               	goto	l160
  1752     0215                     u2030:
  1753     0215                     l2074:
  1754     0215  1683               	bsf	3,5	;RP0=1, select bank1
  1755     0216  1303               	bcf	3,6	;RP1=0, select bank1
  1756     0217  0842               	movf	_abortar^(0+128),w	;volatile
  1757     0218  0443               	iorwf	(_abortar+1)^(0+128),w	;volatile
  1758     0219  1D03               	btfss	3,2
  1759     021A  2A1C               	goto	u2041
  1760     021B  2A1D               	goto	u2040
  1761     021C                     u2041:
  1762     021C  28B9               	goto	l160
  1763     021D                     u2040:
  1764     021D                     l2076:
  1765                           
  1766                           ;fuzzer.c: 144:             if(menu==1) {
  1767     021D  0340               	decf	_menu^(0+128),w
  1768     021E  0441               	iorwf	(_menu+1)^(0+128),w
  1769     021F  1D03               	btfss	3,2
  1770     0220  2A22               	goto	u2051
  1771     0221  2A23               	goto	u2050
  1772     0222                     u2051:
  1773     0222  2ABF               	goto	l2110
  1774     0223                     u2050:
  1775     0223                     l2078:
  1776                           
  1777                           ;fuzzer.c: 145:                 Lcd_Set_Cursor(3,1);
  1778     0223  01F6               	clrf	Lcd_Set_Cursor@b
  1779     0224  0AF6               	incf	Lcd_Set_Cursor@b,f
  1780     0225  3003               	movlw	3
  1781     0226  120A  158A  24C1  120A  118A  	fcall	_Lcd_Set_Cursor
  1782     022B                     l2080:
  1783                           
  1784                           ;fuzzer.c: 146:                 Lcd_Write_String("LISTENING...");
  1785     022B  305E               	movlw	low (STR_17| (0+32768))
  1786     022C  00F7               	movwf	Lcd_Write_String@a
  1787     022D  3086               	movlw	high (STR_17| (0+32768))
  1788     022E  00F8               	movwf	Lcd_Write_String@a+1
  1789     022F  120A  118A  27BA  120A  118A  	fcall	_Lcd_Write_String
  1790                           
  1791                           ;fuzzer.c: 147:                 while(PORTBbits.RB2==0) __asm("clrwdt");
  1792     0234  2A36               	goto	l172
  1793     0235                     l173:
  1794     0235  0064               	clrwdt	;# 
  1795     0236                     l172:
  1796     0236  1283               	bcf	3,5	;RP0=0, select bank0
  1797     0237  1303               	bcf	3,6	;RP1=0, select bank0
  1798     0238  1D06               	btfss	6,2	;volatile
  1799     0239  2A3B               	goto	u2061
  1800     023A  2A3C               	goto	u2060
  1801     023B                     u2061:
  1802     023B  2A35               	goto	l173
  1803     023C                     u2060:
  1804     023C  2AB7               	goto	l2108
  1805     023D                     l176:
  1806     023D  0064               	clrwdt	;# 
  1807                           
  1808                           ;fuzzer.c: 150:                     if(PORTBbits.RB1==0) break;
  1809     023E  1283               	bcf	3,5	;RP0=0, select bank0
  1810     023F  1303               	bcf	3,6	;RP1=0, select bank0
  1811     0240  1886               	btfsc	6,1	;volatile
  1812     0241  2A43               	goto	u2071
  1813     0242  2A44               	goto	u2070
  1814     0243                     u2071:
  1815     0243  2A45               	goto	l2084
  1816     0244                     u2070:
  1817     0244  2ABF               	goto	l2110
  1818     0245                     l2084:
  1819                           
  1820                           ;fuzzer.c: 151:                     if(UART_Data_Ready()) {
  1821     0245  120A  158A  233B  120A  118A  	fcall	_UART_Data_Ready
  1822     024A  3A00               	xorlw	0
  1823     024B  1903               	skipnz
  1824     024C  2A4E               	goto	u2081
  1825     024D  2A4F               	goto	u2080
  1826     024E                     u2081:
  1827     024E  2AB7               	goto	l2108
  1828     024F                     u2080:
  1829     024F                     l2086:
  1830                           
  1831                           ;fuzzer.c: 152:                         char c = UART_Read();
  1832     024F  120A  158A  236E  120A  118A  	fcall	_UART_Read
  1833     0254  1683               	bsf	3,5	;RP0=1, select bank1
  1834     0255  1303               	bcf	3,6	;RP1=0, select bank1
  1835     0256  00DF               	movwf	main@c^(0+128)
  1836     0257                     l2088:
  1837                           
  1838                           ;fuzzer.c: 153:                         if(c=='u' || c=='l') {
  1839     0257  3075               	movlw	117
  1840     0258  065F               	xorwf	main@c^(0+128),w
  1841     0259  1903               	btfsc	3,2
  1842     025A  2A5C               	goto	u2091
  1843     025B  2A5D               	goto	u2090
  1844     025C                     u2091:
  1845     025C  2A63               	goto	l2092
  1846     025D                     u2090:
  1847     025D                     l2090:
  1848     025D  306C               	movlw	108
  1849     025E  065F               	xorwf	main@c^(0+128),w
  1850     025F  1D03               	btfss	3,2
  1851     0260  2A62               	goto	u2101
  1852     0261  2A63               	goto	u2100
  1853     0262                     u2101:
  1854     0262  2AB7               	goto	l2108
  1855     0263                     u2100:
  1856     0263                     l2092:
  1857                           
  1858                           ;fuzzer.c: 154:                             EEPROM_Write(0, c);
  1859     0263  085F               	movf	main@c^(0+128),w
  1860     0264  00F2               	movwf	EEPROM_Write@data
  1861     0265  3000               	movlw	0
  1862     0266  120A  158A  23E6  120A  118A  	fcall	_EEPROM_Write
  1863                           
  1864                           ;fuzzer.c: 155:                             Lcd_Set_Cursor(3,1);
  1865     026B  01F6               	clrf	Lcd_Set_Cursor@b
  1866     026C  0AF6               	incf	Lcd_Set_Cursor@b,f
  1867     026D  3003               	movlw	3
  1868     026E  120A  158A  24C1  120A  118A  	fcall	_Lcd_Set_Cursor
  1869     0273                     l2094:
  1870                           
  1871                           ;fuzzer.c: 156:                             Lcd_Write_String("CAPTURED: KEY   ");
  1872     0273  3089               	movlw	low (STR_18| (0+32768))
  1873     0274  00F7               	movwf	Lcd_Write_String@a
  1874     0275  3085               	movlw	high (STR_18| (0+32768))
  1875     0276  00F8               	movwf	Lcd_Write_String@a+1
  1876     0277  120A  118A  27BA  120A  118A  	fcall	_Lcd_Write_String
  1877     027C                     l2096:
  1878                           
  1879                           ;fuzzer.c: 157:                             if(c=='u') {
  1880     027C  3075               	movlw	117
  1881     027D  1683               	bsf	3,5	;RP0=1, select bank1
  1882     027E  1303               	bcf	3,6	;RP1=0, select bank1
  1883     027F  065F               	xorwf	main@c^(0+128),w
  1884     0280  1D03               	btfss	3,2
  1885     0281  2A83               	goto	u2111
  1886     0282  2A84               	goto	u2110
  1887     0283                     u2111:
  1888     0283  2A96               	goto	l2102
  1889     0284                     u2110:
  1890     0284                     l2098:
  1891                           
  1892                           ;fuzzer.c: 158:                                 Lcd_Set_Cursor(4,1);
  1893     0284  01F6               	clrf	Lcd_Set_Cursor@b
  1894     0285  0AF6               	incf	Lcd_Set_Cursor@b,f
  1895     0286  3004               	movlw	4
  1896     0287  120A  158A  24C1  120A  118A  	fcall	_Lcd_Set_Cursor
  1897     028C                     l2100:
  1898                           
  1899                           ;fuzzer.c: 159:                                 Lcd_Write_String("TYPE: UNLOCK    ");
  1900     028C  3078               	movlw	low (STR_19| (0+32768))
  1901     028D  00F7               	movwf	Lcd_Write_String@a
  1902     028E  3085               	movlw	high (STR_19| (0+32768))
  1903     028F  00F8               	movwf	Lcd_Write_String@a+1
  1904     0290  120A  118A  27BA  120A  118A  	fcall	_Lcd_Write_String
  1905                           
  1906                           ;fuzzer.c: 160:                             }
  1907     0295  2AA7               	goto	l2106
  1908     0296                     l2102:
  1909                           
  1910                           ;fuzzer.c: 162:                                 Lcd_Set_Cursor(4,1);
  1911     0296  01F6               	clrf	Lcd_Set_Cursor@b
  1912     0297  0AF6               	incf	Lcd_Set_Cursor@b,f
  1913     0298  3004               	movlw	4
  1914     0299  120A  158A  24C1  120A  118A  	fcall	_Lcd_Set_Cursor
  1915     029E                     l2104:
  1916                           
  1917                           ;fuzzer.c: 163:                                 Lcd_Write_String("TYPE: LOCK      ");
  1918     029E  3067               	movlw	low (STR_20| (0+32768))
  1919     029F  00F7               	movwf	Lcd_Write_String@a
  1920     02A0  3085               	movlw	high (STR_20| (0+32768))
  1921     02A1  00F8               	movwf	Lcd_Write_String@a+1
  1922     02A2  120A  118A  27BA  120A  118A  	fcall	_Lcd_Write_String
  1923     02A7                     l2106:
  1924                           
  1925                           ;fuzzer.c: 165:                             _delay((unsigned long)((1500)*(20000000/4000
      +                          .0))); break;
  1926     02A7  3027               	movlw	39
  1927     02A8  1283               	bcf	3,5	;RP0=0, select bank0
  1928     02A9  1303               	bcf	3,6	;RP1=0, select bank0
  1929     02AA  00D4               	movwf	??_main+2
  1930     02AB  300D               	movlw	13
  1931     02AC  00D3               	movwf	??_main+1
  1932     02AD  3025               	movlw	37
  1933     02AE  00D2               	movwf	??_main
  1934     02AF                     u2307:
  1935     02AF  0BD2               	decfsz	??_main,f
  1936     02B0  2AAF               	goto	u2307
  1937     02B1  0BD3               	decfsz	??_main+1,f
  1938     02B2  2AAF               	goto	u2307
  1939     02B3  0BD4               	decfsz	??_main+2,f
  1940     02B4  2AAF               	goto	u2307
  1941     02B5  2AB6               	nop2
  1942     02B6  2ABF               	goto	l2110
  1943     02B7                     l2108:
  1944                           
  1945                           ;fuzzer.c: 148:                 while(!abortar) {
  1946     02B7  1683               	bsf	3,5	;RP0=1, select bank1
  1947     02B8  1303               	bcf	3,6	;RP1=0, select bank1
  1948     02B9  0842               	movf	_abortar^(0+128),w	;volatile
  1949     02BA  0443               	iorwf	(_abortar+1)^(0+128),w	;volatile
  1950     02BB  1903               	btfsc	3,2
  1951     02BC  2ABE               	goto	u2121
  1952     02BD  2ABF               	goto	u2120
  1953     02BE                     u2121:
  1954     02BE  2A3D               	goto	l176
  1955     02BF                     u2120:
  1956     02BF                     l2110:
  1957                           
  1958                           ;fuzzer.c: 170:             Lcd_Set_Cursor(2,1);
  1959     02BF  01F6               	clrf	Lcd_Set_Cursor@b
  1960     02C0  0AF6               	incf	Lcd_Set_Cursor@b,f
  1961     02C1  3002               	movlw	2
  1962     02C2  120A  158A  24C1  120A  118A  	fcall	_Lcd_Set_Cursor
  1963     02C7                     l2112:
  1964                           
  1965                           ;fuzzer.c: 171:             Lcd_Write_String("> 1. SNIFFER KEY");
  1966     02C7  30CD               	movlw	low (STR_10| (0+32768))
  1967     02C8  00F7               	movwf	Lcd_Write_String@a
  1968     02C9  3085               	movlw	high (STR_10| (0+32768))
  1969     02CA  00F8               	movwf	Lcd_Write_String@a+1
  1970     02CB  120A  118A  27BA  120A  118A  	fcall	_Lcd_Write_String
  1971     02D0                     l2114:
  1972                           
  1973                           ;fuzzer.c: 172:             Lcd_Set_Cursor(3,1);
  1974     02D0  01F6               	clrf	Lcd_Set_Cursor@b
  1975     02D1  0AF6               	incf	Lcd_Set_Cursor@b,f
  1976     02D2  3003               	movlw	3
  1977     02D3  120A  158A  24C1  120A  118A  	fcall	_Lcd_Set_Cursor
  1978                           
  1979                           ;fuzzer.c: 173:             Lcd_Write_String("                    ");
  1980     02D8  3003               	movlw	low ((STR_33+3)| (0+32768))
  1981     02D9  00F7               	movwf	Lcd_Write_String@a
  1982     02DA  3085               	movlw	high ((STR_33+3)| (0+32768))
  1983     02DB  00F8               	movwf	Lcd_Write_String@a+1
  1984     02DC  120A  118A  27BA  120A  118A  	fcall	_Lcd_Write_String
  1985     02E1                     l2116:
  1986                           
  1987                           ;fuzzer.c: 176:             if(menu==2) {
  1988     02E1  3002               	movlw	2
  1989     02E2  1683               	bsf	3,5	;RP0=1, select bank1
  1990     02E3  1303               	bcf	3,6	;RP1=0, select bank1
  1991     02E4  0640               	xorwf	_menu^(0+128),w
  1992     02E5  0441               	iorwf	(_menu+1)^(0+128),w
  1993     02E6  1D03               	btfss	3,2
  1994     02E7  2AE9               	goto	u2131
  1995     02E8  2AEA               	goto	u2130
  1996     02E9                     u2131:
  1997     02E9  2B61               	goto	l2144
  1998     02EA                     u2130:
  1999     02EA  2AEC               	goto	l186
  2000     02EB                     l187:
  2001     02EB  0064               	clrwdt	;# 
  2002     02EC                     l186:
  2003     02EC  1283               	bcf	3,5	;RP0=0, select bank0
  2004     02ED  1303               	bcf	3,6	;RP1=0, select bank0
  2005     02EE  1D06               	btfss	6,2	;volatile
  2006     02EF  2AF1               	goto	u2141
  2007     02F0  2AF2               	goto	u2140
  2008     02F1                     u2141:
  2009     02F1  2AEB               	goto	l187
  2010     02F2                     u2140:
  2011     02F2                     l2120:
  2012                           
  2013                           ;fuzzer.c: 178:                 char k = EEPROM_Read(0);
  2014     02F2  3000               	movlw	0
  2015     02F3  120A  158A  23A1  120A  118A  	fcall	_EEPROM_Read
  2016     02F8  1683               	bsf	3,5	;RP0=1, select bank1
  2017     02F9  1303               	bcf	3,6	;RP1=0, select bank1
  2018     02FA  00DC               	movwf	main@k^(0+128)
  2019     02FB                     l2122:
  2020                           
  2021                           ;fuzzer.c: 179:                 if(k == 'u' || k == 'l') {
  2022     02FB  3075               	movlw	117
  2023     02FC  065C               	xorwf	main@k^(0+128),w
  2024     02FD  1903               	btfsc	3,2
  2025     02FE  2B00               	goto	u2151
  2026     02FF  2B01               	goto	u2150
  2027     0300                     u2151:
  2028     0300  2B07               	goto	l2126
  2029     0301                     u2150:
  2030     0301                     l2124:
  2031     0301  306C               	movlw	108
  2032     0302  065C               	xorwf	main@k^(0+128),w
  2033     0303  1D03               	btfss	3,2
  2034     0304  2B06               	goto	u2161
  2035     0305  2B07               	goto	u2160
  2036     0306                     u2161:
  2037     0306  2B41               	goto	l2138
  2038     0307                     u2160:
  2039     0307                     l2126:
  2040                           
  2041                           ;fuzzer.c: 180:                     Lcd_Set_Cursor(3,1);
  2042     0307  01F6               	clrf	Lcd_Set_Cursor@b
  2043     0308  0AF6               	incf	Lcd_Set_Cursor@b,f
  2044     0309  3003               	movlw	3
  2045     030A  120A  158A  24C1  120A  118A  	fcall	_Lcd_Set_Cursor
  2046     030F                     l2128:
  2047                           
  2048                           ;fuzzer.c: 181:                     Lcd_Write_String("INJECTING KEY...");
  2049     030F  30AB               	movlw	low (STR_23| (0+32768))
  2050     0310  00F7               	movwf	Lcd_Write_String@a
  2051     0311  3085               	movlw	high (STR_23| (0+32768))
  2052     0312  00F8               	movwf	Lcd_Write_String@a+1
  2053     0313  120A  118A  27BA  120A  118A  	fcall	_Lcd_Write_String
  2054     0318                     l2130:
  2055                           
  2056                           ;fuzzer.c: 182:                     UART_Write(k);
  2057     0318  1683               	bsf	3,5	;RP0=1, select bank1
  2058     0319  1303               	bcf	3,6	;RP1=0, select bank1
  2059     031A  085C               	movf	main@k^(0+128),w
  2060     031B  120A  158A  2360  120A  118A  	fcall	_UART_Write
  2061     0320                     l2132:
  2062                           
  2063                           ;fuzzer.c: 183:                     _delay((unsigned long)((500)*(20000000/4000.0)));
  2064     0320  300D               	movlw	13
  2065     0321  1283               	bcf	3,5	;RP0=0, select bank0
  2066     0322  1303               	bcf	3,6	;RP1=0, select bank0
  2067     0323  00D4               	movwf	??_main+2
  2068     0324  30AF               	movlw	175
  2069     0325  00D3               	movwf	??_main+1
  2070     0326  30B5               	movlw	181
  2071     0327  00D2               	movwf	??_main
  2072     0328                     u2317:
  2073     0328  0BD2               	decfsz	??_main,f
  2074     0329  2B28               	goto	u2317
  2075     032A  0BD3               	decfsz	??_main+1,f
  2076     032B  2B28               	goto	u2317
  2077     032C  0BD4               	decfsz	??_main+2,f
  2078     032D  2B28               	goto	u2317
  2079     032E  2B2F               	nop2
  2080     032F                     l2134:
  2081                           
  2082                           ;fuzzer.c: 184:                     Lcd_Set_Cursor(3,1);
  2083     032F  01F6               	clrf	Lcd_Set_Cursor@b
  2084     0330  0AF6               	incf	Lcd_Set_Cursor@b,f
  2085     0331  3003               	movlw	3
  2086     0332  120A  158A  24C1  120A  118A  	fcall	_Lcd_Set_Cursor
  2087     0337                     l2136:
  2088                           
  2089                           ;fuzzer.c: 185:                     Lcd_Write_String("DONE.           ");
  2090     0337  3056               	movlw	low (STR_24| (0+32768))
  2091     0338  00F7               	movwf	Lcd_Write_String@a
  2092     0339  3085               	movlw	high (STR_24| (0+32768))
  2093     033A  00F8               	movwf	Lcd_Write_String@a+1
  2094     033B  120A  118A  27BA  120A  118A  	fcall	_Lcd_Write_String
  2095                           
  2096                           ;fuzzer.c: 186:                 } else {
  2097     0340  2B61               	goto	l2144
  2098     0341                     l2138:
  2099                           
  2100                           ;fuzzer.c: 187:                     Lcd_Set_Cursor(3,1);
  2101     0341  01F6               	clrf	Lcd_Set_Cursor@b
  2102     0342  0AF6               	incf	Lcd_Set_Cursor@b,f
  2103     0343  3003               	movlw	3
  2104     0344  120A  158A  24C1  120A  118A  	fcall	_Lcd_Set_Cursor
  2105     0349                     l2140:
  2106                           
  2107                           ;fuzzer.c: 188:                     Lcd_Write_String("ERROR: NO KEY!  ");
  2108     0349  309A               	movlw	low (STR_25| (0+32768))
  2109     034A  00F7               	movwf	Lcd_Write_String@a
  2110     034B  3085               	movlw	high (STR_25| (0+32768))
  2111     034C  00F8               	movwf	Lcd_Write_String@a+1
  2112     034D  120A  118A  27BA  120A  118A  	fcall	_Lcd_Write_String
  2113     0352                     l2142:
  2114                           
  2115                           ;fuzzer.c: 189:                     _delay((unsigned long)((1000)*(20000000/4000.0)));
  2116     0352  301A               	movlw	26
  2117     0353  1283               	bcf	3,5	;RP0=0, select bank0
  2118     0354  1303               	bcf	3,6	;RP1=0, select bank0
  2119     0355  00D4               	movwf	??_main+2
  2120     0356  305E               	movlw	94
  2121     0357  00D3               	movwf	??_main+1
  2122     0358  306D               	movlw	109
  2123     0359  00D2               	movwf	??_main
  2124     035A                     u2327:
  2125     035A  0BD2               	decfsz	??_main,f
  2126     035B  2B5A               	goto	u2327
  2127     035C  0BD3               	decfsz	??_main+1,f
  2128     035D  2B5A               	goto	u2327
  2129     035E  0BD4               	decfsz	??_main+2,f
  2130     035F  2B5A               	goto	u2327
  2131     0360  2B61               	nop2
  2132     0361                     l2144:
  2133                           
  2134                           ;fuzzer.c: 192:             Lcd_Set_Cursor(2,1);
  2135     0361  01F6               	clrf	Lcd_Set_Cursor@b
  2136     0362  0AF6               	incf	Lcd_Set_Cursor@b,f
  2137     0363  3002               	movlw	2
  2138     0364  120A  158A  24C1  120A  118A  	fcall	_Lcd_Set_Cursor
  2139     0369                     l2146:
  2140                           
  2141                           ;fuzzer.c: 193:             Lcd_Write_String("> 2. REPLAY KEY");
  2142     0369  303F               	movlw	low (STR_12| (0+32768))
  2143     036A  00F7               	movwf	Lcd_Write_String@a
  2144     036B  3086               	movlw	high (STR_12| (0+32768))
  2145     036C  00F8               	movwf	Lcd_Write_String@a+1
  2146     036D  120A  118A  27BA  120A  118A  	fcall	_Lcd_Write_String
  2147     0372                     l2148:
  2148                           
  2149                           ;fuzzer.c: 194:             Lcd_Set_Cursor(3,1);
  2150     0372  01F6               	clrf	Lcd_Set_Cursor@b
  2151     0373  0AF6               	incf	Lcd_Set_Cursor@b,f
  2152     0374  3003               	movlw	3
  2153     0375  120A  158A  24C1  120A  118A  	fcall	_Lcd_Set_Cursor
  2154     037A                     l2150:
  2155                           
  2156                           ;fuzzer.c: 195:             Lcd_Write_String("                    ");
  2157     037A  3003               	movlw	low ((STR_33+3)| (0+32768))
  2158     037B  00F7               	movwf	Lcd_Write_String@a
  2159     037C  3085               	movlw	high ((STR_33+3)| (0+32768))
  2160     037D  00F8               	movwf	Lcd_Write_String@a+1
  2161     037E  120A  118A  27BA  120A  118A  	fcall	_Lcd_Write_String
  2162     0383                     l2152:
  2163                           
  2164                           ;fuzzer.c: 198:             if(menu==3) {
  2165     0383  3003               	movlw	3
  2166     0384  1683               	bsf	3,5	;RP0=1, select bank1
  2167     0385  1303               	bcf	3,6	;RP1=0, select bank1
  2168     0386  0640               	xorwf	_menu^(0+128),w
  2169     0387  0441               	iorwf	(_menu+1)^(0+128),w
  2170     0388  1D03               	btfss	3,2
  2171     0389  2B8B               	goto	u2171
  2172     038A  2B8C               	goto	u2170
  2173     038B                     u2171:
  2174     038B  28B9               	goto	l160
  2175     038C                     u2170:
  2176     038C                     l2154:
  2177                           
  2178                           ;fuzzer.c: 199:                 Lcd_Set_Cursor(3,1);
  2179     038C  01F6               	clrf	Lcd_Set_Cursor@b
  2180     038D  0AF6               	incf	Lcd_Set_Cursor@b,f
  2181     038E  3003               	movlw	3
  2182     038F  120A  158A  24C1  120A  118A  	fcall	_Lcd_Set_Cursor
  2183     0394                     l2156:
  2184                           
  2185                           ;fuzzer.c: 200:                 Lcd_Write_String("ADJUST INTENSITY");
  2186     0394  30DE               	movlw	low (STR_28| (0+32768))
  2187     0395  00F7               	movwf	Lcd_Write_String@a
  2188     0396  3085               	movlw	high (STR_28| (0+32768))
  2189     0397  00F8               	movwf	Lcd_Write_String@a+1
  2190     0398  120A  118A  27BA  120A  118A  	fcall	_Lcd_Write_String
  2191     039D                     l2158:
  2192                           
  2193                           ;fuzzer.c: 201:                 _delay((unsigned long)((500)*(20000000/4000.0)));
  2194     039D  300D               	movlw	13
  2195     039E  1283               	bcf	3,5	;RP0=0, select bank0
  2196     039F  1303               	bcf	3,6	;RP1=0, select bank0
  2197     03A0  00D4               	movwf	??_main+2
  2198     03A1  30AF               	movlw	175
  2199     03A2  00D3               	movwf	??_main+1
  2200     03A3  30B5               	movlw	181
  2201     03A4  00D2               	movwf	??_main
  2202     03A5                     u2337:
  2203     03A5  0BD2               	decfsz	??_main,f
  2204     03A6  2BA5               	goto	u2337
  2205     03A7  0BD3               	decfsz	??_main+1,f
  2206     03A8  2BA5               	goto	u2337
  2207     03A9  0BD4               	decfsz	??_main+2,f
  2208     03AA  2BA5               	goto	u2337
  2209     03AB  2BAC               	nop2
  2210                           
  2211                           ;fuzzer.c: 202:                 while(PORTBbits.RB2==0) __asm("clrwdt");
  2212     03AC  2BAE               	goto	l194
  2213     03AD                     l195:
  2214     03AD  0064               	clrwdt	;# 
  2215     03AE                     l194:
  2216     03AE  1283               	bcf	3,5	;RP0=0, select bank0
  2217     03AF  1303               	bcf	3,6	;RP1=0, select bank0
  2218     03B0  1D06               	btfss	6,2	;volatile
  2219     03B1  2BB3               	goto	u2181
  2220     03B2  2BB4               	goto	u2180
  2221     03B3                     u2181:
  2222     03B3  2BAD               	goto	l195
  2223     03B4                     u2180:
  2224     03B4  2CCC               	goto	l2208
  2225     03B5                     l198:
  2226     03B5  0064               	clrwdt	;# 
  2227     03B6                     l2160:
  2228                           
  2229                           ;fuzzer.c: 206:                     unsigned int pot = ADC_Read();
  2230     03B6  120A  158A  23B6  120A  118A  	fcall	_ADC_Read
  2231     03BB  0873               	movf	?_ADC_Read+1,w
  2232     03BC  1683               	bsf	3,5	;RP0=1, select bank1
  2233     03BD  1303               	bcf	3,6	;RP1=0, select bank1
  2234     03BE  00D9               	movwf	(main@pot+1)^(0+128)
  2235     03BF  0872               	movf	?_ADC_Read,w
  2236     03C0  00D8               	movwf	main@pot^(0+128)
  2237     03C1                     l2162:
  2238                           
  2239                           ;fuzzer.c: 207:                     int intes = (int)((unsigned long)pot * 100 / 1023);
  2240     03C1  3000               	movlw	0
  2241     03C2  1283               	bcf	3,5	;RP0=0, select bank0
  2242     03C3  1303               	bcf	3,6	;RP1=0, select bank0
  2243     03C4  00A7               	movwf	___lldiv@divisor+3
  2244     03C5  3000               	movlw	0
  2245     03C6  00A6               	movwf	___lldiv@divisor+2
  2246     03C7  3003               	movlw	3
  2247     03C8  00A5               	movwf	___lldiv@divisor+1
  2248     03C9  30FF               	movlw	255
  2249     03CA  00A4               	movwf	___lldiv@divisor
  2250     03CB  1683               	bsf	3,5	;RP0=1, select bank1
  2251     03CC  1303               	bcf	3,6	;RP1=0, select bank1
  2252     03CD  0858               	movf	main@pot^(0+128),w
  2253     03CE  00F2               	movwf	___lmul@multiplier
  2254     03CF  0859               	movf	(main@pot+1)^(0+128),w
  2255     03D0  00F3               	movwf	___lmul@multiplier+1
  2256     03D1  01F4               	clrf	___lmul@multiplier+2
  2257     03D2  01F5               	clrf	___lmul@multiplier+3
  2258     03D3  3000               	movlw	0
  2259     03D4  00F9               	movwf	___lmul@multiplicand+3
  2260     03D5  3000               	movlw	0
  2261     03D6  00F8               	movwf	___lmul@multiplicand+2
  2262     03D7  3000               	movlw	0
  2263     03D8  00F7               	movwf	___lmul@multiplicand+1
  2264     03D9  3064               	movlw	100
  2265     03DA  00F6               	movwf	___lmul@multiplicand
  2266     03DB  120A  158A  24FD  120A  118A  	fcall	___lmul
  2267     03E0  0875               	movf	?___lmul+3,w
  2268     03E1  1283               	bcf	3,5	;RP0=0, select bank0
  2269     03E2  1303               	bcf	3,6	;RP1=0, select bank0
  2270     03E3  00AB               	movwf	___lldiv@dividend+3
  2271     03E4  0874               	movf	?___lmul+2,w
  2272     03E5  00AA               	movwf	___lldiv@dividend+2
  2273     03E6  0873               	movf	?___lmul+1,w
  2274     03E7  00A9               	movwf	___lldiv@dividend+1
  2275     03E8  0872               	movf	?___lmul,w
  2276     03E9  00A8               	movwf	___lldiv@dividend
  2277     03EA  120A  158A  2661  120A  118A  	fcall	___lldiv
  2278     03EF  1283               	bcf	3,5	;RP0=0, select bank0
  2279     03F0  1303               	bcf	3,6	;RP1=0, select bank0
  2280     03F1  0825               	movf	?___lldiv+1,w
  2281     03F2  1683               	bsf	3,5	;RP0=1, select bank1
  2282     03F3  1303               	bcf	3,6	;RP1=0, select bank1
  2283     03F4  00DE               	movwf	(main@intes+1)^(0+128)
  2284     03F5  1283               	bcf	3,5	;RP0=0, select bank0
  2285     03F6  1303               	bcf	3,6	;RP1=0, select bank0
  2286     03F7  0824               	movf	?___lldiv,w
  2287     03F8  1683               	bsf	3,5	;RP0=1, select bank1
  2288     03F9  1303               	bcf	3,6	;RP1=0, select bank1
  2289     03FA  00DD               	movwf	main@intes^(0+128)
  2290     03FB                     l2164:
  2291                           
  2292                           ;fuzzer.c: 208:                     char s[20];;fuzzer.c: 209:                     sprin
      +                          tf(s, "LOAD: %d%% [KILL]", intes);
  2293     03FB  30C4               	movlw	(low (main@s| 0))& (0+255)
  2294     03FC  1283               	bcf	3,5	;RP0=0, select bank0
  2295     03FD  1303               	bcf	3,6	;RP1=0, select bank0
  2296     03FE  00C0               	movwf	sprintf@s
  2297     03FF  3044               	movlw	low (STR_29| (0+32768))
  2298     0400  00C1               	movwf	sprintf@fmt
  2299     0401  3085               	movlw	high (STR_29| (0+32768))
  2300     0402  00C2               	movwf	sprintf@fmt+1
  2301     0403  1683               	bsf	3,5	;RP0=1, select bank1
  2302     0404  1303               	bcf	3,6	;RP1=0, select bank1
  2303     0405  085E               	movf	(main@intes+1)^(0+128),w
  2304     0406  1283               	bcf	3,5	;RP0=0, select bank0
  2305     0407  1303               	bcf	3,6	;RP1=0, select bank0
  2306     0408  00C4               	movwf	?_sprintf+4
  2307     0409  1683               	bsf	3,5	;RP0=1, select bank1
  2308     040A  1303               	bcf	3,6	;RP1=0, select bank1
  2309     040B  085D               	movf	main@intes^(0+128),w
  2310     040C  1283               	bcf	3,5	;RP0=0, select bank0
  2311     040D  1303               	bcf	3,6	;RP1=0, select bank0
  2312     040E  00C3               	movwf	?_sprintf+3
  2313     040F  120A  158A  240A  120A  118A  	fcall	_sprintf
  2314     0414                     l2166:
  2315                           
  2316                           ;fuzzer.c: 210:                     Lcd_Set_Cursor(3,1);
  2317     0414  01F6               	clrf	Lcd_Set_Cursor@b
  2318     0415  0AF6               	incf	Lcd_Set_Cursor@b,f
  2319     0416  3003               	movlw	3
  2320     0417  120A  158A  24C1  120A  118A  	fcall	_Lcd_Set_Cursor
  2321     041C                     l2168:
  2322                           
  2323                           ;fuzzer.c: 211:                     Lcd_Write_String(s);
  2324     041C  30C4               	movlw	(low (main@s| 0))& (0+255)
  2325     041D  00F7               	movwf	Lcd_Write_String@a
  2326     041E  3000               	movlw	0
  2327     041F  00F8               	movwf	Lcd_Write_String@a+1
  2328     0420  120A  118A  27BA  120A  118A  	fcall	_Lcd_Write_String
  2329     0425                     l2170:
  2330                           
  2331                           ;fuzzer.c: 212:                     if(PORTBbits.RB4 == 0) {
  2332     0425  1283               	bcf	3,5	;RP0=0, select bank0
  2333     0426  1303               	bcf	3,6	;RP1=0, select bank0
  2334     0427  1A06               	btfsc	6,4	;volatile
  2335     0428  2C2A               	goto	u2191
  2336     0429  2C2B               	goto	u2190
  2337     042A                     u2191:
  2338     042A  2CCC               	goto	l2208
  2339     042B                     u2190:
  2340     042B  2CAD               	goto	l2200
  2341     042C                     l2174:
  2342                           
  2343                           ;fuzzer.c: 214:                             if(intes <= 79) {
  2344     042C  085E               	movf	(main@intes+1)^(0+128),w
  2345     042D  3A80               	xorlw	128
  2346     042E  00FF               	movwf	btemp1
  2347     042F  3080               	movlw	128
  2348     0430  027F               	subwf	btemp1,w
  2349     0431  1D03               	skipz
  2350     0432  2C35               	goto	u2205
  2351     0433  3050               	movlw	80
  2352     0434  025D               	subwf	main@intes^(0+128),w
  2353     0435                     u2205:
  2354     0435  1803               	skipnc
  2355     0436  2C38               	goto	u2201
  2356     0437  2C39               	goto	u2200
  2357     0438                     u2201:
  2358     0438  2C51               	goto	l2182
  2359     0439                     u2200:
  2360     0439                     l2176:
  2361                           
  2362                           ;fuzzer.c: 215:                                 Lcd_Set_Cursor(4,1);
  2363     0439  01F6               	clrf	Lcd_Set_Cursor@b
  2364     043A  0AF6               	incf	Lcd_Set_Cursor@b,f
  2365     043B  3004               	movlw	4
  2366     043C  120A  158A  24C1  120A  118A  	fcall	_Lcd_Set_Cursor
  2367     0441                     l2178:
  2368                           
  2369                           ;fuzzer.c: 216:                                 Lcd_Write_String(">>> SENDING ATTACK <<<
      +                          ");
  2370     0441  3018               	movlw	low (STR_30| (0+32768))
  2371     0442  00F7               	movwf	Lcd_Write_String@a
  2372     0443  3085               	movlw	high (STR_30| (0+32768))
  2373     0444  00F8               	movwf	Lcd_Write_String@a+1
  2374     0445  120A  118A  27BA  120A  118A  	fcall	_Lcd_Write_String
  2375     044A                     l2180:
  2376                           
  2377                           ;fuzzer.c: 217:                                 UART_Write('B');
  2378     044A  3042               	movlw	66
  2379     044B  120A  158A  2360  120A  118A  	fcall	_UART_Write
  2380                           
  2381                           ;fuzzer.c: 218:                             }
  2382     0450  2C9E               	goto	l2198
  2383     0451                     l2182:
  2384     0451  1683               	bsf	3,5	;RP0=1, select bank1
  2385     0452  1303               	bcf	3,6	;RP1=0, select bank1
  2386     0453  085E               	movf	(main@intes+1)^(0+128),w
  2387     0454  3A80               	xorlw	128
  2388     0455  00FF               	movwf	btemp1
  2389     0456  3080               	movlw	128
  2390     0457  027F               	subwf	btemp1,w
  2391     0458  1D03               	skipz
  2392     0459  2C5C               	goto	u2215
  2393     045A  3050               	movlw	80
  2394     045B  025D               	subwf	main@intes^(0+128),w
  2395     045C                     u2215:
  2396     045C  1C03               	skipc
  2397     045D  2C5F               	goto	u2211
  2398     045E  2C60               	goto	u2210
  2399     045F                     u2211:
  2400     045F  2C87               	goto	l2192
  2401     0460                     u2210:
  2402     0460                     l2184:
  2403     0460  1683               	bsf	3,5	;RP0=1, select bank1
  2404     0461  1303               	bcf	3,6	;RP1=0, select bank1
  2405     0462  085E               	movf	(main@intes+1)^(0+128),w
  2406     0463  3A80               	xorlw	128
  2407     0464  00FF               	movwf	btemp1
  2408     0465  3080               	movlw	128
  2409     0466  027F               	subwf	btemp1,w
  2410     0467  1D03               	skipz
  2411     0468  2C6B               	goto	u2225
  2412     0469  305F               	movlw	95
  2413     046A  025D               	subwf	main@intes^(0+128),w
  2414     046B                     u2225:
  2415     046B  1803               	skipnc
  2416     046C  2C6E               	goto	u2221
  2417     046D  2C6F               	goto	u2220
  2418     046E                     u2221:
  2419     046E  2C87               	goto	l2192
  2420     046F                     u2220:
  2421     046F                     l2186:
  2422                           
  2423                           ;fuzzer.c: 220:                                 Lcd_Set_Cursor(4,1);
  2424     046F  01F6               	clrf	Lcd_Set_Cursor@b
  2425     0470  0AF6               	incf	Lcd_Set_Cursor@b,f
  2426     0471  3004               	movlw	4
  2427     0472  120A  158A  24C1  120A  118A  	fcall	_Lcd_Set_Cursor
  2428     0477                     l2188:
  2429                           
  2430                           ;fuzzer.c: 221:                                 Lcd_Write_String(">>> KILL <<<");
  2431     0477  306B               	movlw	low (STR_31| (0+32768))
  2432     0478  00F7               	movwf	Lcd_Write_String@a
  2433     0479  3086               	movlw	high (STR_31| (0+32768))
  2434     047A  00F8               	movwf	Lcd_Write_String@a+1
  2435     047B  120A  118A  27BA  120A  118A  	fcall	_Lcd_Write_String
  2436     0480                     l2190:
  2437                           
  2438                           ;fuzzer.c: 222:                                 UART_Write('C');
  2439     0480  3043               	movlw	67
  2440     0481  120A  158A  2360  120A  118A  	fcall	_UART_Write
  2441                           
  2442                           ;fuzzer.c: 223:                             }
  2443     0486  2C9E               	goto	l2198
  2444     0487                     l2192:
  2445                           
  2446                           ;fuzzer.c: 225:                                 Lcd_Set_Cursor(4,1);
  2447     0487  01F6               	clrf	Lcd_Set_Cursor@b
  2448     0488  0AF6               	incf	Lcd_Set_Cursor@b,f
  2449     0489  3004               	movlw	4
  2450     048A  120A  158A  24C1  120A  118A  	fcall	_Lcd_Set_Cursor
  2451     048F                     l2194:
  2452                           
  2453                           ;fuzzer.c: 226:                                 Lcd_Write_String(">>> KILL <<<");
  2454     048F  306B               	movlw	low (STR_31| (0+32768))
  2455     0490  00F7               	movwf	Lcd_Write_String@a
  2456     0491  3086               	movlw	high (STR_31| (0+32768))
  2457     0492  00F8               	movwf	Lcd_Write_String@a+1
  2458     0493  120A  118A  27BA  120A  118A  	fcall	_Lcd_Write_String
  2459     0498                     l2196:
  2460                           
  2461                           ;fuzzer.c: 227:                                 UART_Write(0x00);
  2462     0498  3000               	movlw	0
  2463     0499  120A  158A  2360  120A  118A  	fcall	_UART_Write
  2464     049E                     l2198:
  2465                           
  2466                           ;fuzzer.c: 230:                             _delay((unsigned long)((50)*(20000000/4000.0
      +                          ))); __asm("clrwdt");
  2467     049E  3002               	movlw	2
  2468     049F  1283               	bcf	3,5	;RP0=0, select bank0
  2469     04A0  1303               	bcf	3,6	;RP1=0, select bank0
  2470     04A1  00D4               	movwf	??_main+2
  2471     04A2  3045               	movlw	69
  2472     04A3  00D3               	movwf	??_main+1
  2473     04A4  30A9               	movlw	169
  2474     04A5  00D2               	movwf	??_main
  2475     04A6                     u2347:
  2476     04A6  0BD2               	decfsz	??_main,f
  2477     04A7  2CA6               	goto	u2347
  2478     04A8  0BD3               	decfsz	??_main+1,f
  2479     04A9  2CA6               	goto	u2347
  2480     04AA  0BD4               	decfsz	??_main+2,f
  2481     04AB  2CA6               	goto	u2347
  2482     04AC  0064               	clrwdt	;# 
  2483     04AD                     l2200:
  2484                           
  2485                           ;fuzzer.c: 213:                         while(PORTBbits.RB4 == 0 && !abortar) {
  2486     04AD  1283               	bcf	3,5	;RP0=0, select bank0
  2487     04AE  1303               	bcf	3,6	;RP1=0, select bank0
  2488     04AF  1A06               	btfsc	6,4	;volatile
  2489     04B0  2CB2               	goto	u2231
  2490     04B1  2CB3               	goto	u2230
  2491     04B2                     u2231:
  2492     04B2  2CBB               	goto	l2204
  2493     04B3                     u2230:
  2494     04B3                     l2202:
  2495     04B3  1683               	bsf	3,5	;RP0=1, select bank1
  2496     04B4  1303               	bcf	3,6	;RP1=0, select bank1
  2497     04B5  0842               	movf	_abortar^(0+128),w	;volatile
  2498     04B6  0443               	iorwf	(_abortar+1)^(0+128),w	;volatile
  2499     04B7  1903               	btfsc	3,2
  2500     04B8  2CBA               	goto	u2241
  2501     04B9  2CBB               	goto	u2240
  2502     04BA                     u2241:
  2503     04BA  2C2C               	goto	l2174
  2504     04BB                     u2240:
  2505     04BB                     l2204:
  2506                           
  2507                           ;fuzzer.c: 232:                         Lcd_Set_Cursor(4,1);
  2508     04BB  01F6               	clrf	Lcd_Set_Cursor@b
  2509     04BC  0AF6               	incf	Lcd_Set_Cursor@b,f
  2510     04BD  3004               	movlw	4
  2511     04BE  120A  158A  24C1  120A  118A  	fcall	_Lcd_Set_Cursor
  2512     04C3                     l2206:
  2513                           
  2514                           ;fuzzer.c: 233:                         Lcd_Write_String("                       ");
  2515     04C3  3000               	movlw	low (STR_33| (0+32768))
  2516     04C4  00F7               	movwf	Lcd_Write_String@a
  2517     04C5  3085               	movlw	high (STR_33| (0+32768))
  2518     04C6  00F8               	movwf	Lcd_Write_String@a+1
  2519     04C7  120A  118A  27BA  120A  118A  	fcall	_Lcd_Write_String
  2520     04CC                     l2208:
  2521                           
  2522                           ;fuzzer.c: 204:                 while(!abortar && PORTBbits.RB1==1) {
  2523     04CC  1683               	bsf	3,5	;RP0=1, select bank1
  2524     04CD  1303               	bcf	3,6	;RP1=0, select bank1
  2525     04CE  0842               	movf	_abortar^(0+128),w	;volatile
  2526     04CF  0443               	iorwf	(_abortar+1)^(0+128),w	;volatile
  2527     04D0  1D03               	btfss	3,2
  2528     04D1  2CD3               	goto	u2251
  2529     04D2  2CD4               	goto	u2250
  2530     04D3                     u2251:
  2531     04D3  28B9               	goto	l160
  2532     04D4                     u2250:
  2533     04D4                     l2210:
  2534     04D4  1283               	bcf	3,5	;RP0=0, select bank0
  2535     04D5  1303               	bcf	3,6	;RP1=0, select bank0
  2536     04D6  1886               	btfsc	6,1	;volatile
  2537     04D7  2CD9               	goto	u2261
  2538     04D8  2CDA               	goto	u2260
  2539     04D9                     u2261:
  2540     04D9  2BB5               	goto	l198
  2541     04DA                     u2260:
  2542     04DA  28B9               	goto	l160
  2543     04DB  120A  118A  280C   	ljmp	start
  2544     04DE                     __end_of_main:
  2545                           
  2546                           	psect	text1
  2547     0C0A                     __ptext1:	
  2548 ;; *************** function _sprintf *****************
  2549 ;; Defined at:
  2550 ;;		line 9 in file "C:\Program Files\Microchip\xc8\v3.10\pic\sources\c99\common\nf_sprintf.c"
  2551 ;; Parameters:    Size  Location     Type
  2552 ;;  s               1   32[BANK0 ] PTR unsigned char 
  2553 ;;		 -> main@s(20), 
  2554 ;;  fmt             2   33[BANK0 ] PTR const unsigned char 
  2555 ;;		 -> STR_29(18), 
  2556 ;; Auto vars:     Size  Location     Type
  2557 ;;  f              11   39[BANK0 ] struct _IO_FILE
  2558 ;;  ret             2    0        int 
  2559 ;;  ap              1   38[BANK0 ] PTR void [1]
  2560 ;;		 -> ?_sprintf(2), 
  2561 ;; Return value:  Size  Location     Type
  2562 ;;                  2   32[BANK0 ] int 
  2563 ;; Registers used:
  2564 ;;		wreg, fsr0l, fsr0h, status,2, status,0, pclath, btemp1, cstack
  2565 ;; Tracked objects:
  2566 ;;		On entry : 0/0
  2567 ;;		On exit  : 0/0
  2568 ;;		Unchanged: 0/0
  2569 ;; Data sizes:     COMMON   BANK0   BANK1   BANK3   BANK2
  2570 ;;      Params:         0       5       0       0       0
  2571 ;;      Locals:         0      12       0       0       0
  2572 ;;      Temps:          0       1       0       0       0
  2573 ;;      Totals:         0      18       0       0       0
  2574 ;;Total ram usage:       18 bytes
  2575 ;; Hardware stack levels used: 1
  2576 ;; Hardware stack levels required when called: 5
  2577 ;; This function calls:
  2578 ;;		_vfprintf
  2579 ;; This function is called by:
  2580 ;;		_main
  2581 ;; This function uses a non-reentrant model
  2582 ;;
  2583                           
  2584     0C0A                     _sprintf:	
  2585                           ;psect for function _sprintf
  2586                           
  2587     0C0A                     l1886:	
  2588                           ;incstack = 0
  2589                           ; Regs used in _sprintf: [wreg-fsr0h+status,2+status,0+pclath+btemp1+cstack]
  2590                           
  2591     0C0A  3043               	movlw	(low ((?_sprintf| 0+3)))& (0+255)
  2592     0C0B  1283               	bcf	3,5	;RP0=0, select bank0
  2593     0C0C  1303               	bcf	3,6	;RP1=0, select bank0
  2594     0C0D  00C6               	movwf	sprintf@ap
  2595     0C0E                     l1888:
  2596     0C0E  0840               	movf	sprintf@s,w
  2597     0C0F  00C7               	movwf	sprintf@f
  2598     0C10  3000               	movlw	0
  2599     0C11  00C8               	movwf	sprintf@f+1
  2600     0C12                     l1890:
  2601     0C12  01C9               	clrf	sprintf@f+2
  2602     0C13  01CA               	clrf	sprintf@f+3
  2603     0C14                     l1892:
  2604     0C14  01D0               	clrf	sprintf@f+9
  2605     0C15  01D1               	clrf	sprintf@f+10
  2606     0C16                     l1894:
  2607     0C16  3047               	movlw	low sprintf@f
  2608     0C17  00B9               	movwf	vfprintf@fp
  2609     0C18  3000               	movlw	high sprintf@f
  2610     0C19  00BA               	movwf	vfprintf@fp+1
  2611     0C1A  0841               	movf	sprintf@fmt,w
  2612     0C1B  00BB               	movwf	vfprintf@fmt
  2613     0C1C  0842               	movf	sprintf@fmt+1,w
  2614     0C1D  00BC               	movwf	vfprintf@fmt+1
  2615     0C1E  3046               	movlw	(low (sprintf@ap| 0))& (0+255)
  2616     0C1F  00BD               	movwf	vfprintf@ap
  2617     0C20  120A  158A  242F  120A  158A  	fcall	_vfprintf
  2618     0C25                     l1896:
  2619     0C25  1283               	bcf	3,5	;RP0=0, select bank0
  2620     0C26  1303               	bcf	3,6	;RP1=0, select bank0
  2621     0C27  0849               	movf	sprintf@f+2,w
  2622     0C28  0740               	addwf	sprintf@s,w
  2623     0C29  00C5               	movwf	??_sprintf
  2624     0C2A  0845               	movf	??_sprintf,w
  2625     0C2B  0084               	movwf	4
  2626     0C2C  1383               	bcf	3,7	;select IRP bank0
  2627     0C2D  0180               	clrf	0
  2628     0C2E                     l763:
  2629     0C2E  0008               	return
  2630     0C2F                     __end_of_sprintf:
  2631                           
  2632                           	psect	text2
  2633     0C2F                     __ptext2:	
  2634 ;; *************** function _vfprintf *****************
  2635 ;; Defined at:
  2636 ;;		line 1817 in file "C:\Program Files\Microchip\xc8\v3.10\pic\sources\c99\common\doprnt.c"
  2637 ;; Parameters:    Size  Location     Type
  2638 ;;  fp              2   25[BANK0 ] PTR struct _IO_FILE
  2639 ;;		 -> sprintf@f(11), 
  2640 ;;  fmt             2   27[BANK0 ] PTR const unsigned char 
  2641 ;;		 -> STR_29(18), 
  2642 ;;  ap              1   29[BANK0 ] PTR PTR void 
  2643 ;;		 -> sprintf@ap(1), 
  2644 ;; Auto vars:     Size  Location     Type
  2645 ;;  cfmt            2   30[BANK0 ] PTR unsigned char 
  2646 ;;		 -> STR_29(18), 
  2647 ;; Return value:  Size  Location     Type
  2648 ;;                  2   25[BANK0 ] int 
  2649 ;; Registers used:
  2650 ;;		wreg, fsr0l, fsr0h, status,2, status,0, pclath, btemp1, cstack
  2651 ;; Tracked objects:
  2652 ;;		On entry : 0/0
  2653 ;;		On exit  : 0/0
  2654 ;;		Unchanged: 0/0
  2655 ;; Data sizes:     COMMON   BANK0   BANK1   BANK3   BANK2
  2656 ;;      Params:         0       5       0       0       0
  2657 ;;      Locals:         0       2       0       0       0
  2658 ;;      Temps:          0       0       0       0       0
  2659 ;;      Totals:         0       7       0       0       0
  2660 ;;Total ram usage:        7 bytes
  2661 ;; Hardware stack levels used: 1
  2662 ;; Hardware stack levels required when called: 4
  2663 ;; This function calls:
  2664 ;;		_vfpfcnvrt
  2665 ;; This function is called by:
  2666 ;;		_sprintf
  2667 ;; This function uses a non-reentrant model
  2668 ;;
  2669                           
  2670     0C2F                     _vfprintf:	
  2671                           ;psect for function _vfprintf
  2672                           
  2673     0C2F                     l1772:	
  2674                           ;incstack = 0
  2675                           ; Regs used in _vfprintf: [wreg-fsr0h+status,2+status,0+pclath+btemp1+cstack]
  2676                           
  2677                           
  2678                           ;C:\Program Files\Microchip\xc8\v3.10\pic\sources\c99\common\doprnt.c: 1817: int vfprint
      +                          f(FILE *fp, const char *fmt, va_list ap);C:\Program Files\Microchip\xc8\v3.10\pic\source
      +                          s\c99\common\doprnt.c: 1818: {;C:\Program Files\Microchip\xc8\v3.10\pic\sources\c99\comm
      +                          on\doprnt.c: 1820:     char *cfmt;;C:\Program Files\Microchip\xc8\v3.10\pic\sources\c99\
      +                          common\doprnt.c: 1822:     cfmt = (char *)fmt;
  2679     0C2F  1283               	bcf	3,5	;RP0=0, select bank0
  2680     0C30  1303               	bcf	3,6	;RP1=0, select bank0
  2681     0C31  083B               	movf	vfprintf@fmt,w
  2682     0C32  00BE               	movwf	vfprintf@cfmt
  2683     0C33  083C               	movf	vfprintf@fmt+1,w
  2684     0C34  00BF               	movwf	vfprintf@cfmt+1
  2685                           
  2686                           ;C:\Program Files\Microchip\xc8\v3.10\pic\sources\c99\common\doprnt.c: 1826:     while (
      +                          *cfmt) {
  2687     0C35  2C43               	goto	l1776
  2688     0C36                     l1774:
  2689                           
  2690                           ;C:\Program Files\Microchip\xc8\v3.10\pic\sources\c99\common\doprnt.c: 1830:    vfpfcnvr
      +                          t(fp, &cfmt, ap);
  2691     0C36  0839               	movf	vfprintf@fp,w
  2692     0C37  00A9               	movwf	vfpfcnvrt@fp
  2693     0C38  083A               	movf	vfprintf@fp+1,w
  2694     0C39  00AA               	movwf	vfpfcnvrt@fp+1
  2695     0C3A  303E               	movlw	(low (vfprintf@cfmt| 0))& (0+255)
  2696     0C3B  00AB               	movwf	vfpfcnvrt@fmt
  2697     0C3C  083D               	movf	vfprintf@ap,w
  2698     0C3D  00AC               	movwf	vfpfcnvrt@ap
  2699     0C3E  120A  118A  2678  120A  158A  	fcall	_vfpfcnvrt
  2700     0C43                     l1776:
  2701                           
  2702                           ;C:\Program Files\Microchip\xc8\v3.10\pic\sources\c99\common\doprnt.c: 1826:     while (
      +                          *cfmt) {
  2703     0C43  1283               	bcf	3,5	;RP0=0, select bank0
  2704     0C44  1303               	bcf	3,6	;RP1=0, select bank0
  2705     0C45  083F               	movf	vfprintf@cfmt+1,w
  2706     0C46  00FF               	movwf	btemp1
  2707     0C47  083E               	movf	vfprintf@cfmt,w
  2708     0C48  0084               	movwf	4
  2709     0C49  120A  158A  2000  120A  158A  	fcall	stringtab
  2710     0C4E  3A00               	xorlw	0
  2711     0C4F  1D03               	skipz
  2712     0C50  2C52               	goto	u1651
  2713     0C51  2C53               	goto	u1650
  2714     0C52                     u1651:
  2715     0C52  2C36               	goto	l1774
  2716     0C53                     u1650:
  2717     0C53                     l1778:
  2718                           
  2719                           ;C:\Program Files\Microchip\xc8\v3.10\pic\sources\c99\common\doprnt.c: 1835:  return 0;
  2720     0C53  01B9               	clrf	?_vfprintf
  2721     0C54  01BA               	clrf	?_vfprintf+1
  2722     0C55                     l808:
  2723     0C55  0008               	return
  2724     0C56                     __end_of_vfprintf:
  2725                           
  2726                           	psect	text3
  2727     0678                     __ptext3:	
  2728 ;; *************** function _vfpfcnvrt *****************
  2729 ;; Defined at:
  2730 ;;		line 1177 in file "C:\Program Files\Microchip\xc8\v3.10\pic\sources\c99\common\doprnt.c"
  2731 ;; Parameters:    Size  Location     Type
  2732 ;;  fp              2    9[BANK0 ] PTR struct _IO_FILE
  2733 ;;		 -> sprintf@f(11), 
  2734 ;;  fmt             1   11[BANK0 ] PTR PTR unsigned char 
  2735 ;;		 -> vfprintf@cfmt(2), 
  2736 ;;  ap              1   12[BANK0 ] PTR PTR void 
  2737 ;;		 -> sprintf@ap(1), 
  2738 ;; Auto vars:     Size  Location     Type
  2739 ;;  convarg         4   20[BANK0 ] struct .
  2740 ;;  cp              2   18[BANK0 ] PTR unsigned char 
  2741 ;;		 -> STR_29(18), 
  2742 ;;  c               1   24[BANK0 ] unsigned char 
  2743 ;;  done            1   17[BANK0 ] _Bool 
  2744 ;; Return value:  Size  Location     Type
  2745 ;;                  1    wreg      void 
  2746 ;; Registers used:
  2747 ;;		wreg, fsr0l, fsr0h, status,2, status,0, pclath, btemp1, cstack
  2748 ;; Tracked objects:
  2749 ;;		On entry : 0/0
  2750 ;;		On exit  : 0/0
  2751 ;;		Unchanged: 0/0
  2752 ;; Data sizes:     COMMON   BANK0   BANK1   BANK3   BANK2
  2753 ;;      Params:         0       4       0       0       0
  2754 ;;      Locals:         0       8       0       0       0
  2755 ;;      Temps:          0       4       0       0       0
  2756 ;;      Totals:         0      16       0       0       0
  2757 ;;Total ram usage:       16 bytes
  2758 ;; Hardware stack levels used: 1
  2759 ;; Hardware stack levels required when called: 3
  2760 ;; This function calls:
  2761 ;;		___awdiv
  2762 ;;		___awmod
  2763 ;;		_abs
  2764 ;;		_fputc
  2765 ;; This function is called by:
  2766 ;;		_vfprintf
  2767 ;; This function uses a non-reentrant model
  2768 ;;
  2769                           
  2770     0678                     _vfpfcnvrt:	
  2771                           ;psect for function _vfpfcnvrt
  2772                           
  2773     0678                     l1640:	
  2774                           ;incstack = 0
  2775                           ; Regs used in _vfpfcnvrt: [wreg-fsr0h+status,2+status,0+pclath+btemp1+cstack]
  2776                           
  2777                           
  2778                           ;C:\Program Files\Microchip\xc8\v3.10\pic\sources\c99\common\doprnt.c: 1177: vfpfcnvrt(F
      +                          ILE *fp, char *fmt[], va_list ap);C:\Program Files\Microchip\xc8\v3.10\pic\sources\c99\c
      +                          ommon\doprnt.c: 1178: {;C:\Program Files\Microchip\xc8\v3.10\pic\sources\c99\common\dopr
      +                          nt.c: 1179:     char c, *cp;;C:\Program Files\Microchip\xc8\v3.10\pic\sources\c99\common
      +                          \doprnt.c: 1180:     _Bool done;;C:\Program Files\Microchip\xc8\v3.10\pic\sources\c99\co
      +                          mmon\doprnt.c: 1188:  } convarg;;C:\Program Files\Microchip\xc8\v3.10\pic\sources\c99\co
      +                          mmon\doprnt.c: 1201:     if ((*fmt)[0] == '%') {
  2779     0678  1283               	bcf	3,5	;RP0=0, select bank0
  2780     0679  1303               	bcf	3,6	;RP1=0, select bank0
  2781     067A  082B               	movf	vfpfcnvrt@fmt,w
  2782     067B  0084               	movwf	4
  2783     067C  1383               	bcf	3,7	;select IRP bank0
  2784     067D  0800               	movf	0,w
  2785     067E  00AD               	movwf	??_vfpfcnvrt
  2786     067F  0A84               	incf	4,f
  2787     0680  0800               	movf	0,w
  2788     0681  00AE               	movwf	??_vfpfcnvrt+1
  2789     0682  082E               	movf	??_vfpfcnvrt+1,w
  2790     0683  00FF               	movwf	btemp1
  2791     0684  082D               	movf	??_vfpfcnvrt,w
  2792     0685  0084               	movwf	4
  2793     0686  120A  158A  2000  120A  118A  	fcall	stringtab
  2794     068B  3A25               	xorlw	37
  2795     068C  1D03               	skipz
  2796     068D  2E8F               	goto	u1431
  2797     068E  2E90               	goto	u1430
  2798     068F                     u1431:
  2799     068F  2F98               	goto	l1692
  2800     0690                     u1430:
  2801     0690                     l1642:
  2802                           
  2803                           ;C:\Program Files\Microchip\xc8\v3.10\pic\sources\c99\common\doprnt.c: 1202:         ++*
      +                          fmt;
  2804     0690  082B               	movf	vfpfcnvrt@fmt,w
  2805     0691  0084               	movwf	4
  2806     0692  3001               	movlw	1
  2807     0693  1383               	bcf	3,7	;select IRP bank0
  2808     0694  0780               	addwf	0,f
  2809     0695  0A84               	incf	4,f
  2810     0696  1803               	skipnc
  2811     0697  0A80               	incf	0,f
  2812     0698                     l1644:
  2813                           
  2814                           ;C:\Program Files\Microchip\xc8\v3.10\pic\sources\c99\common\doprnt.c: 1204:         fla
      +                          gs = width = 0;
  2815     0698  01D5               	clrf	_width
  2816     0699  01D6               	clrf	_width+1
  2817     069A  3000               	movlw	0
  2818     069B  00D9               	movwf	_flags
  2819     069C                     l1646:
  2820                           
  2821                           ;C:\Program Files\Microchip\xc8\v3.10\pic\sources\c99\common\doprnt.c: 1205:         pre
      +                          c = -1;
  2822     069C  30FF               	movlw	255
  2823     069D  00D7               	movwf	_prec
  2824     069E  30FF               	movlw	255
  2825     069F  00D8               	movwf	_prec+1
  2826     06A0                     l1648:
  2827                           
  2828                           ;C:\Program Files\Microchip\xc8\v3.10\pic\sources\c99\common\doprnt.c: 1291:   cp = *fmt
      +                          ;
  2829     06A0  082B               	movf	vfpfcnvrt@fmt,w
  2830     06A1  0084               	movwf	4
  2831     06A2  0800               	movf	0,w
  2832     06A3  00B2               	movwf	vfpfcnvrt@cp
  2833     06A4  0A84               	incf	4,f
  2834     06A5  0800               	movf	0,w
  2835     06A6  0384               	decf	4,f
  2836     06A7  00B3               	movwf	vfpfcnvrt@cp+1
  2837     06A8                     l1650:
  2838                           
  2839                           ;C:\Program Files\Microchip\xc8\v3.10\pic\sources\c99\common\doprnt.c: 1361:   if (*cp =
      +                          = 'd' || *cp == 'i') {
  2840     06A8  0833               	movf	vfpfcnvrt@cp+1,w
  2841     06A9  00FF               	movwf	btemp1
  2842     06AA  0832               	movf	vfpfcnvrt@cp,w
  2843     06AB  0084               	movwf	4
  2844     06AC  120A  158A  2000  120A  118A  	fcall	stringtab
  2845     06B1  3A64               	xorlw	100
  2846     06B2  1903               	skipnz
  2847     06B3  2EB5               	goto	u1441
  2848     06B4  2EB6               	goto	u1440
  2849     06B5                     u1441:
  2850     06B5  2EC4               	goto	l1654
  2851     06B6                     u1440:
  2852     06B6                     l1652:
  2853     06B6  0833               	movf	vfpfcnvrt@cp+1,w
  2854     06B7  00FF               	movwf	btemp1
  2855     06B8  0832               	movf	vfpfcnvrt@cp,w
  2856     06B9  0084               	movwf	4
  2857     06BA  120A  158A  2000  120A  118A  	fcall	stringtab
  2858     06BF  3A69               	xorlw	105
  2859     06C0  1D03               	skipz
  2860     06C1  2EC3               	goto	u1451
  2861     06C2  2EC4               	goto	u1450
  2862     06C3                     u1451:
  2863     06C3  2F61               	goto	l1680
  2864     06C4                     u1450:
  2865     06C4                     l1654:
  2866                           
  2867                           ;C:\Program Files\Microchip\xc8\v3.10\pic\sources\c99\common\doprnt.c: 1404:    convarg.
      +                          sint = (vfpf_sint_t)(int)(*(int *)__va_arg(*(int **)ap, (int)0));
  2868     06C4  082C               	movf	vfpfcnvrt@ap,w
  2869     06C5  0084               	movwf	4
  2870     06C6  1383               	bcf	3,7	;select IRP bank0
  2871     06C7  0800               	movf	0,w
  2872     06C8  00AD               	movwf	??_vfpfcnvrt
  2873     06C9  3002               	movlw	2
  2874     06CA  0780               	addwf	0,f
  2875     06CB  082D               	movf	??_vfpfcnvrt,w
  2876     06CC  0084               	movwf	4
  2877     06CD  0800               	movf	0,w
  2878     06CE  00B4               	movwf	vfpfcnvrt@convarg
  2879     06CF  0A84               	incf	4,f
  2880     06D0  0800               	movf	0,w
  2881     06D1  00B5               	movwf	vfpfcnvrt@convarg+1
  2882                           
  2883                           ;C:\Program Files\Microchip\xc8\v3.10\pic\sources\c99\common\doprnt.c: 1406:    *fmt = c
      +                          p+1;
  2884     06D2  3001               	movlw	1
  2885     06D3  00AD               	movwf	??_vfpfcnvrt
  2886     06D4  082D               	movf	??_vfpfcnvrt,w
  2887     06D5  0732               	addwf	vfpfcnvrt@cp,w
  2888     06D6  00AF               	movwf	??_vfpfcnvrt+2
  2889     06D7  0833               	movf	vfpfcnvrt@cp+1,w
  2890     06D8  00AE               	movwf	??_vfpfcnvrt+1
  2891     06D9  1803               	skipnc
  2892     06DA  0AAE               	incf	??_vfpfcnvrt+1,f
  2893     06DB  1BAD               	btfsc	??_vfpfcnvrt,7
  2894     06DC  03AE               	decf	??_vfpfcnvrt+1,f
  2895     06DD  082E               	movf	??_vfpfcnvrt+1,w
  2896     06DE  00B0               	movwf	??_vfpfcnvrt+3
  2897     06DF  082B               	movf	vfpfcnvrt@fmt,w
  2898     06E0  0084               	movwf	4
  2899     06E1  082F               	movf	??_vfpfcnvrt+2,w
  2900     06E2  0080               	movwf	0
  2901     06E3  0830               	movf	??_vfpfcnvrt+3,w
  2902     06E4  0A84               	incf	4,f
  2903     06E5  0080               	movwf	0
  2904     06E6  0384               	decf	4,f
  2905     06E7                     l1656:
  2906                           
  2907                           ;C:\Program Files\Microchip\xc8\v3.10\pic\sources\c99\common\doprnt.c: 1408:    c = size
      +                          of(dbuf);
  2908     06E7  3020               	movlw	32
  2909     06E8  00B8               	movwf	vfpfcnvrt@c
  2910     06E9                     l1658:
  2911                           
  2912                           ;C:\Program Files\Microchip\xc8\v3.10\pic\sources\c99\common\doprnt.c: 1409:    done = c
      +                          onvarg.sint < 0;
  2913     06E9  1BB5               	btfsc	vfpfcnvrt@convarg+1,7
  2914     06EA  2EEC               	goto	u1461
  2915     06EB  2EEE               	goto	u1460
  2916     06EC                     u1461:
  2917     06EC  3001               	movlw	1
  2918     06ED  2EEF               	goto	u1470
  2919     06EE                     u1460:
  2920     06EE  3000               	movlw	0
  2921     06EF                     u1470:
  2922     06EF  00B1               	movwf	vfpfcnvrt@done
  2923     06F0                     l1660:
  2924                           
  2925                           ;C:\Program Files\Microchip\xc8\v3.10\pic\sources\c99\common\doprnt.c: 1411:     dbuf[--
      +                          c] = abs(convarg.sint % 10) + '0';
  2926     06F0  3001               	movlw	1
  2927     06F1  02B8               	subwf	vfpfcnvrt@c,f
  2928     06F2  0838               	movf	vfpfcnvrt@c,w
  2929     06F3  3EA0               	addlw	(low (_dbuf| 0))& (0+255)
  2930     06F4  0084               	movwf	4
  2931     06F5  300A               	movlw	10
  2932     06F6  00F2               	movwf	___awmod@divisor
  2933     06F7  3000               	movlw	0
  2934     06F8  00F3               	movwf	___awmod@divisor+1
  2935     06F9  0835               	movf	vfpfcnvrt@convarg+1,w
  2936     06FA  00F5               	movwf	___awmod@dividend+1
  2937     06FB  0834               	movf	vfpfcnvrt@convarg,w
  2938     06FC  00F4               	movwf	___awmod@dividend
  2939     06FD  120A  158A  2549  120A  118A  	fcall	___awmod
  2940     0702  0873               	movf	?___awmod+1,w
  2941     0703  00F9               	movwf	abs@a+1
  2942     0704  0872               	movf	?___awmod,w
  2943     0705  00F8               	movwf	abs@a
  2944     0706  120A  158A  237E  120A  118A  	fcall	_abs
  2945     070B  0878               	movf	?_abs,w
  2946     070C  3E30               	addlw	48
  2947     070D  1383               	bcf	3,7	;select IRP bank1
  2948     070E  0080               	movwf	0
  2949     070F                     l1662:
  2950                           
  2951                           ;C:\Program Files\Microchip\xc8\v3.10\pic\sources\c99\common\doprnt.c: 1412:     convarg
      +                          .sint /= 10;
  2952     070F  300A               	movlw	10
  2953     0710  00F2               	movwf	___awdiv@divisor
  2954     0711  3000               	movlw	0
  2955     0712  00F3               	movwf	___awdiv@divisor+1
  2956     0713  1283               	bcf	3,5	;RP0=0, select bank0
  2957     0714  1303               	bcf	3,6	;RP1=0, select bank0
  2958     0715  0835               	movf	vfpfcnvrt@convarg+1,w
  2959     0716  00F5               	movwf	___awdiv@dividend+1
  2960     0717  0834               	movf	vfpfcnvrt@convarg,w
  2961     0718  00F4               	movwf	___awdiv@dividend
  2962     0719  120A  158A  25FE  120A  118A  	fcall	___awdiv
  2963     071E  0873               	movf	?___awdiv+1,w
  2964     071F  1283               	bcf	3,5	;RP0=0, select bank0
  2965     0720  1303               	bcf	3,6	;RP1=0, select bank0
  2966     0721  00B5               	movwf	vfpfcnvrt@convarg+1
  2967     0722  0872               	movf	?___awdiv,w
  2968     0723  00B4               	movwf	vfpfcnvrt@convarg
  2969     0724                     l1664:
  2970                           
  2971                           ;C:\Program Files\Microchip\xc8\v3.10\pic\sources\c99\common\doprnt.c: 1416:    } while 
      +                          (convarg.sint != 0 && c != 0);
  2972     0724  0834               	movf	vfpfcnvrt@convarg,w
  2973     0725  0435               	iorwf	vfpfcnvrt@convarg+1,w
  2974     0726  1903               	btfsc	3,2
  2975     0727  2F29               	goto	u1481
  2976     0728  2F2A               	goto	u1480
  2977     0729                     u1481:
  2978     0729  2F2F               	goto	l1668
  2979     072A                     u1480:
  2980     072A                     l1666:
  2981     072A  0838               	movf	vfpfcnvrt@c,w
  2982     072B  1D03               	btfss	3,2
  2983     072C  2F2E               	goto	u1491
  2984     072D  2F2F               	goto	u1490
  2985     072E                     u1491:
  2986     072E  2EF0               	goto	l1660
  2987     072F                     u1490:
  2988     072F                     l1668:
  2989                           
  2990                           ;C:\Program Files\Microchip\xc8\v3.10\pic\sources\c99\common\doprnt.c: 1417:    if (c !=
      +                           0 && done) {
  2991     072F  0838               	movf	vfpfcnvrt@c,w
  2992     0730  1903               	btfsc	3,2
  2993     0731  2F33               	goto	u1501
  2994     0732  2F34               	goto	u1500
  2995     0733                     u1501:
  2996     0733  2F5A               	goto	l1678
  2997     0734                     u1500:
  2998     0734                     l1670:
  2999     0734  0831               	movf	vfpfcnvrt@done,w
  3000     0735  1903               	btfsc	3,2
  3001     0736  2F38               	goto	u1511
  3002     0737  2F39               	goto	u1510
  3003     0738                     u1511:
  3004     0738  2F5A               	goto	l1678
  3005     0739                     u1510:
  3006     0739                     l1672:
  3007                           
  3008                           ;C:\Program Files\Microchip\xc8\v3.10\pic\sources\c99\common\doprnt.c: 1418:     dbuf[--
      +                          c] = '-';
  3009     0739  3001               	movlw	1
  3010     073A  02B8               	subwf	vfpfcnvrt@c,f
  3011     073B  0838               	movf	vfpfcnvrt@c,w
  3012     073C  3EA0               	addlw	(low (_dbuf| 0))& (0+255)
  3013     073D  0084               	movwf	4
  3014     073E  302D               	movlw	45
  3015     073F  1383               	bcf	3,7	;select IRP bank1
  3016     0740  0080               	movwf	0
  3017     0741  2F5A               	goto	l1678
  3018     0742                     l1674:
  3019                           
  3020                           ;C:\Program Files\Microchip\xc8\v3.10\pic\sources\c99\common\doprnt.c: 1424:     fputc(d
      +                          buf[c++], fp);
  3021     0742  0838               	movf	vfpfcnvrt@c,w
  3022     0743  3EA0               	addlw	(low (_dbuf| 0))& (0+255)
  3023     0744  0084               	movwf	4
  3024     0745  1383               	bcf	3,7	;select IRP bank1
  3025     0746  0800               	movf	0,w
  3026     0747  00AD               	movwf	??_vfpfcnvrt
  3027     0748  01AE               	clrf	??_vfpfcnvrt+1
  3028     0749  082D               	movf	??_vfpfcnvrt,w
  3029     074A  00F2               	movwf	fputc@c
  3030     074B  082E               	movf	??_vfpfcnvrt+1,w
  3031     074C  00F3               	movwf	fputc@c+1
  3032     074D  0829               	movf	vfpfcnvrt@fp,w
  3033     074E  00F4               	movwf	fputc@fp
  3034     074F  082A               	movf	vfpfcnvrt@fp+1,w
  3035     0750  00F5               	movwf	fputc@fp+1
  3036     0751  120A  158A  2760  120A  118A  	fcall	_fputc
  3037     0756                     l1676:
  3038     0756  3001               	movlw	1
  3039     0757  1283               	bcf	3,5	;RP0=0, select bank0
  3040     0758  1303               	bcf	3,6	;RP1=0, select bank0
  3041     0759  07B8               	addwf	vfpfcnvrt@c,f
  3042     075A                     l1678:
  3043                           
  3044                           ;C:\Program Files\Microchip\xc8\v3.10\pic\sources\c99\common\doprnt.c: 1423:    while (c
      +                           != sizeof(dbuf)) {
  3045     075A  3020               	movlw	32
  3046     075B  0638               	xorwf	vfpfcnvrt@c,w
  3047     075C  1D03               	btfss	3,2
  3048     075D  2F5F               	goto	u1521
  3049     075E  2F60               	goto	u1520
  3050     075F                     u1521:
  3051     075F  2F42               	goto	l1674
  3052     0760                     u1520:
  3053     0760  2FB9               	goto	l801
  3054     0761                     l1680:
  3055                           
  3056                           ;C:\Program Files\Microchip\xc8\v3.10\pic\sources\c99\common\doprnt.c: 1798:         if 
      +                          ((*fmt)[0] == '%') {
  3057     0761  082B               	movf	vfpfcnvrt@fmt,w
  3058     0762  0084               	movwf	4
  3059     0763  1383               	bcf	3,7	;select IRP bank0
  3060     0764  0800               	movf	0,w
  3061     0765  00AD               	movwf	??_vfpfcnvrt
  3062     0766  0A84               	incf	4,f
  3063     0767  0800               	movf	0,w
  3064     0768  00AE               	movwf	??_vfpfcnvrt+1
  3065     0769  082E               	movf	??_vfpfcnvrt+1,w
  3066     076A  00FF               	movwf	btemp1
  3067     076B  082D               	movf	??_vfpfcnvrt,w
  3068     076C  0084               	movwf	4
  3069     076D  120A  158A  2000  120A  118A  	fcall	stringtab
  3070     0772  3A25               	xorlw	37
  3071     0773  1D03               	skipz
  3072     0774  2F76               	goto	u1531
  3073     0775  2F77               	goto	u1530
  3074     0776                     u1531:
  3075     0776  2F8D               	goto	l1688
  3076     0777                     u1530:
  3077     0777                     l1682:
  3078                           
  3079                           ;C:\Program Files\Microchip\xc8\v3.10\pic\sources\c99\common\doprnt.c: 1799:            
      +                           ++*fmt;
  3080     0777  082B               	movf	vfpfcnvrt@fmt,w
  3081     0778  0084               	movwf	4
  3082     0779  3001               	movlw	1
  3083     077A  1383               	bcf	3,7	;select IRP bank0
  3084     077B  0780               	addwf	0,f
  3085     077C  0A84               	incf	4,f
  3086     077D  1803               	skipnc
  3087     077E  0A80               	incf	0,f
  3088     077F                     l1684:
  3089                           
  3090                           ;C:\Program Files\Microchip\xc8\v3.10\pic\sources\c99\common\doprnt.c: 1800:            
      +                           fputc((int)'%', fp);
  3091     077F  3025               	movlw	37
  3092     0780  00F2               	movwf	fputc@c
  3093     0781  3000               	movlw	0
  3094     0782  00F3               	movwf	fputc@c+1
  3095     0783  0829               	movf	vfpfcnvrt@fp,w
  3096     0784  00F4               	movwf	fputc@fp
  3097     0785  082A               	movf	vfpfcnvrt@fp+1,w
  3098     0786  00F5               	movwf	fputc@fp+1
  3099     0787  120A  158A  2760  120A  118A  	fcall	_fputc
  3100     078C  2FB9               	goto	l801
  3101     078D                     l1688:
  3102                           
  3103                           ;C:\Program Files\Microchip\xc8\v3.10\pic\sources\c99\common\doprnt.c: 1806:         ++*
      +                          fmt;
  3104     078D  1283               	bcf	3,5	;RP0=0, select bank0
  3105     078E  1303               	bcf	3,6	;RP1=0, select bank0
  3106     078F  082B               	movf	vfpfcnvrt@fmt,w
  3107     0790  0084               	movwf	4
  3108     0791  3001               	movlw	1
  3109     0792  1383               	bcf	3,7	;select IRP bank0
  3110     0793  0780               	addwf	0,f
  3111     0794  0A84               	incf	4,f
  3112     0795  1803               	skipnc
  3113     0796  0A80               	incf	0,f
  3114     0797  2FB9               	goto	l801
  3115     0798                     l1692:
  3116                           
  3117                           ;C:\Program Files\Microchip\xc8\v3.10\pic\sources\c99\common\doprnt.c: 1811:     fputc((
      +                          int)(*fmt)[0], fp);
  3118     0798  082B               	movf	vfpfcnvrt@fmt,w
  3119     0799  0084               	movwf	4
  3120     079A  1383               	bcf	3,7	;select IRP bank0
  3121     079B  0800               	movf	0,w
  3122     079C  00AD               	movwf	??_vfpfcnvrt
  3123     079D  0A84               	incf	4,f
  3124     079E  0800               	movf	0,w
  3125     079F  00AE               	movwf	??_vfpfcnvrt+1
  3126     07A0  082E               	movf	??_vfpfcnvrt+1,w
  3127     07A1  00FF               	movwf	btemp1
  3128     07A2  082D               	movf	??_vfpfcnvrt,w
  3129     07A3  0084               	movwf	4
  3130     07A4  120A  158A  2000  120A  118A  	fcall	stringtab
  3131     07A9  00AF               	movwf	??_vfpfcnvrt+2
  3132     07AA  01B0               	clrf	??_vfpfcnvrt+3
  3133     07AB  082F               	movf	??_vfpfcnvrt+2,w
  3134     07AC  00F2               	movwf	fputc@c
  3135     07AD  0830               	movf	??_vfpfcnvrt+3,w
  3136     07AE  00F3               	movwf	fputc@c+1
  3137     07AF  0829               	movf	vfpfcnvrt@fp,w
  3138     07B0  00F4               	movwf	fputc@fp
  3139     07B1  082A               	movf	vfpfcnvrt@fp+1,w
  3140     07B2  00F5               	movwf	fputc@fp+1
  3141     07B3  120A  158A  2760  120A  118A  	fcall	_fputc
  3142     07B8  2F8D               	goto	l1688
  3143     07B9                     l801:
  3144     07B9  0008               	return
  3145     07BA                     __end_of_vfpfcnvrt:
  3146                           
  3147                           	psect	text4
  3148     0F60                     __ptext4:	
  3149 ;; *************** function _fputc *****************
  3150 ;; Defined at:
  3151 ;;		line 8 in file "C:\Program Files\Microchip\xc8\v3.10\pic\sources\c99\common\nf_fputc.c"
  3152 ;; Parameters:    Size  Location     Type
  3153 ;;  c               2    2[COMMON] int 
  3154 ;;  fp              2    4[COMMON] PTR struct _IO_FILE
  3155 ;;		 -> sprintf@f(11), 
  3156 ;; Auto vars:     Size  Location     Type
  3157 ;;		None
  3158 ;; Return value:  Size  Location     Type
  3159 ;;                  2    2[COMMON] int 
  3160 ;; Registers used:
  3161 ;;		wreg, fsr0l, fsr0h, status,2, status,0, pclath, cstack
  3162 ;; Tracked objects:
  3163 ;;		On entry : 0/0
  3164 ;;		On exit  : 0/0
  3165 ;;		Unchanged: 0/0
  3166 ;; Data sizes:     COMMON   BANK0   BANK1   BANK3   BANK2
  3167 ;;      Params:         4       0       0       0       0
  3168 ;;      Locals:         0       0       0       0       0
  3169 ;;      Temps:          0       9       0       0       0
  3170 ;;      Totals:         4       9       0       0       0
  3171 ;;Total ram usage:       13 bytes
  3172 ;; Hardware stack levels used: 1
  3173 ;; Hardware stack levels required when called: 2
  3174 ;; This function calls:
  3175 ;;		_putch
  3176 ;; This function is called by:
  3177 ;;		_vfpfcnvrt
  3178 ;; This function uses a non-reentrant model
  3179 ;;
  3180                           
  3181     0F60                     _fputc:	
  3182                           ;psect for function _fputc
  3183                           
  3184     0F60                     l1608:	
  3185                           ;incstack = 0
  3186                           ; Regs used in _fputc: [wreg-fsr0h+status,2+status,0+pclath+cstack]
  3187                           
  3188     0F60  0874               	movf	fputc@fp,w
  3189     0F61  0475               	iorwf	fputc@fp+1,w
  3190     0F62  1903               	btfsc	3,2
  3191     0F63  2F65               	goto	u1331
  3192     0F64  2F66               	goto	u1330
  3193     0F65                     u1331:
  3194     0F65  2F6C               	goto	l1612
  3195     0F66                     u1330:
  3196     0F66                     l1610:
  3197     0F66  0874               	movf	fputc@fp,w
  3198     0F67  0475               	iorwf	fputc@fp+1,w
  3199     0F68  1D03               	btfss	3,2
  3200     0F69  2F6B               	goto	u1341
  3201     0F6A  2F6C               	goto	u1340
  3202     0F6B                     u1341:
  3203     0F6B  2F73               	goto	l1614
  3204     0F6C                     u1340:
  3205     0F6C                     l1612:
  3206     0F6C  0872               	movf	fputc@c,w
  3207     0F6D  120A  118A  2003  120A  158A  	fcall	_putch
  3208     0F72  2FFF               	goto	l827
  3209     0F73                     l1614:
  3210     0F73  0874               	movf	fputc@fp,w
  3211     0F74  3E09               	addlw	9
  3212     0F75  1283               	bcf	3,5	;RP0=0, select bank0
  3213     0F76  1303               	bcf	3,6	;RP1=0, select bank0
  3214     0F77  00A0               	movwf	??_fputc
  3215     0F78  0875               	movf	fputc@fp+1,w
  3216     0F79  1803               	skipnc
  3217     0F7A  3E01               	addlw	1
  3218     0F7B  3E00               	addlw	0
  3219     0F7C  00A1               	movwf	??_fputc+1
  3220     0F7D  0820               	movf	??_fputc,w
  3221     0F7E  0084               	movwf	4
  3222     0F7F  1783               	bsf	3,7
  3223     0F80  1C21               	btfss	??_fputc+1,0
  3224     0F81  1383               	bcf	3,7
  3225     0F82  0800               	movf	0,w
  3226     0F83  00A2               	movwf	??_fputc+2
  3227     0F84  0A84               	incf	4,f
  3228     0F85  0800               	movf	0,w
  3229     0F86  00A3               	movwf	??_fputc+3
  3230     0F87  0822               	movf	??_fputc+2,w
  3231     0F88  0423               	iorwf	??_fputc+3,w
  3232     0F89  1903               	btfsc	3,2
  3233     0F8A  2F8C               	goto	u1351
  3234     0F8B  2F8D               	goto	u1350
  3235     0F8C                     u1351:
  3236     0F8C  2FBF               	goto	l1618
  3237     0F8D                     u1350:
  3238     0F8D                     l1616:
  3239     0F8D  0874               	movf	fputc@fp,w
  3240     0F8E  3E09               	addlw	9
  3241     0F8F  00A0               	movwf	??_fputc
  3242     0F90  0875               	movf	fputc@fp+1,w
  3243     0F91  1803               	skipnc
  3244     0F92  3E01               	addlw	1
  3245     0F93  3E00               	addlw	0
  3246     0F94  00A1               	movwf	??_fputc+1
  3247     0F95  0820               	movf	??_fputc,w
  3248     0F96  0084               	movwf	4
  3249     0F97  1783               	bsf	3,7
  3250     0F98  1C21               	btfss	??_fputc+1,0
  3251     0F99  1383               	bcf	3,7
  3252     0F9A  0800               	movf	0,w
  3253     0F9B  00A2               	movwf	??_fputc+2
  3254     0F9C  0A84               	incf	4,f
  3255     0F9D  0800               	movf	0,w
  3256     0F9E  00A3               	movwf	??_fputc+3
  3257     0F9F  0874               	movf	fputc@fp,w
  3258     0FA0  3E02               	addlw	2
  3259     0FA1  00A4               	movwf	??_fputc+4
  3260     0FA2  0875               	movf	fputc@fp+1,w
  3261     0FA3  1803               	skipnc
  3262     0FA4  3E01               	addlw	1
  3263     0FA5  3E00               	addlw	0
  3264     0FA6  00A5               	movwf	??_fputc+5
  3265     0FA7  0824               	movf	??_fputc+4,w
  3266     0FA8  0084               	movwf	4
  3267     0FA9  1783               	bsf	3,7
  3268     0FAA  1C25               	btfss	??_fputc+5,0
  3269     0FAB  1383               	bcf	3,7
  3270     0FAC  0800               	movf	0,w
  3271     0FAD  00A6               	movwf	??_fputc+6
  3272     0FAE  0A84               	incf	4,f
  3273     0FAF  0800               	movf	0,w
  3274     0FB0  00A7               	movwf	??_fputc+7
  3275     0FB1  0827               	movf	??_fputc+7,w
  3276     0FB2  3A80               	xorlw	128
  3277     0FB3  00A8               	movwf	??_fputc+8
  3278     0FB4  0823               	movf	??_fputc+3,w
  3279     0FB5  3A80               	xorlw	128
  3280     0FB6  0228               	subwf	??_fputc+8,w
  3281     0FB7  1D03               	skipz
  3282     0FB8  2FBB               	goto	u1365
  3283     0FB9  0822               	movf	??_fputc+2,w
  3284     0FBA  0226               	subwf	??_fputc+6,w
  3285     0FBB                     u1365:
  3286     0FBB  1803               	skipnc
  3287     0FBC  2FBE               	goto	u1361
  3288     0FBD  2FBF               	goto	u1360
  3289     0FBE                     u1361:
  3290     0FBE  2FFF               	goto	l827
  3291     0FBF                     u1360:
  3292     0FBF                     l1618:
  3293     0FBF  0874               	movf	fputc@fp,w
  3294     0FC0  0084               	movwf	4
  3295     0FC1  1783               	bsf	3,7
  3296     0FC2  1C75               	btfss	fputc@fp+1,0
  3297     0FC3  1383               	bcf	3,7
  3298     0FC4  0800               	movf	0,w
  3299     0FC5  1283               	bcf	3,5	;RP0=0, select bank0
  3300     0FC6  1303               	bcf	3,6	;RP1=0, select bank0
  3301     0FC7  00A0               	movwf	??_fputc
  3302     0FC8  0A84               	incf	4,f
  3303     0FC9  0800               	movf	0,w
  3304     0FCA  00A1               	movwf	??_fputc+1
  3305     0FCB  0874               	movf	fputc@fp,w
  3306     0FCC  3E02               	addlw	2
  3307     0FCD  00A2               	movwf	??_fputc+2
  3308     0FCE  0875               	movf	fputc@fp+1,w
  3309     0FCF  1803               	skipnc
  3310     0FD0  3E01               	addlw	1
  3311     0FD1  3E00               	addlw	0
  3312     0FD2  00A3               	movwf	??_fputc+3
  3313     0FD3  0822               	movf	??_fputc+2,w
  3314     0FD4  0084               	movwf	4
  3315     0FD5  1783               	bsf	3,7
  3316     0FD6  1C23               	btfss	??_fputc+3,0
  3317     0FD7  1383               	bcf	3,7
  3318     0FD8  0800               	movf	0,w
  3319     0FD9  0720               	addwf	??_fputc,w
  3320     0FDA  00A5               	movwf	??_fputc+5
  3321     0FDB  0821               	movf	??_fputc+1,w
  3322     0FDC  00A4               	movwf	??_fputc+4
  3323     0FDD  1803               	skipnc
  3324     0FDE  0AA4               	incf	??_fputc+4,f
  3325     0FDF  1F80               	btfss	0,7
  3326     0FE0  2FE2               	goto	u1370
  3327     0FE1  03A4               	decf	??_fputc+4,f
  3328     0FE2                     u1370:
  3329     0FE2  1283               	bcf	3,5	;RP0=0, select bank0
  3330     0FE3  1303               	bcf	3,6	;RP1=0, select bank0
  3331     0FE4  0824               	movf	??_fputc+4,w
  3332     0FE5  00A6               	movwf	??_fputc+6
  3333     0FE6  0825               	movf	??_fputc+5,w
  3334     0FE7  0084               	movwf	4
  3335     0FE8  1783               	bsf	3,7
  3336     0FE9  1C26               	btfss	??_fputc+6,0
  3337     0FEA  1383               	bcf	3,7
  3338     0FEB  0872               	movf	fputc@c,w
  3339     0FEC  0080               	movwf	0
  3340     0FED  0874               	movf	fputc@fp,w
  3341     0FEE  3E02               	addlw	2
  3342     0FEF  00A0               	movwf	??_fputc
  3343     0FF0  0875               	movf	fputc@fp+1,w
  3344     0FF1  1803               	skipnc
  3345     0FF2  3E01               	addlw	1
  3346     0FF3  3E00               	addlw	0
  3347     0FF4  00A1               	movwf	??_fputc+1
  3348     0FF5  0820               	movf	??_fputc,w
  3349     0FF6  0084               	movwf	4
  3350     0FF7  1783               	bsf	3,7
  3351     0FF8  1C21               	btfss	??_fputc+1,0
  3352     0FF9  1383               	bcf	3,7
  3353     0FFA  3001               	movlw	1
  3354     0FFB  0780               	addwf	0,f
  3355     0FFC  0A84               	incf	4,f
  3356     0FFD  1803               	skipnc
  3357     0FFE  0A80               	incf	0,f
  3358     0FFF                     l827:
  3359     0FFF  0008               	return
  3360     1000                     __end_of_fputc:
  3361                           
  3362                           	psect	text5
  3363     0003                     __ptext5:	
  3364 ;; *************** function _putch *****************
  3365 ;; Defined at:
  3366 ;;		line 7 in file "C:\Program Files\Microchip\xc8\v3.10\pic\sources\c99\common\putch.c"
  3367 ;; Parameters:    Size  Location     Type
  3368 ;;  c               1    wreg     unsigned char 
  3369 ;; Auto vars:     Size  Location     Type
  3370 ;;  c               1    0[COMMON] unsigned char 
  3371 ;; Return value:  Size  Location     Type
  3372 ;;                  1    wreg      void 
  3373 ;; Registers used:
  3374 ;;		wreg
  3375 ;; Tracked objects:
  3376 ;;		On entry : 0/0
  3377 ;;		On exit  : 0/0
  3378 ;;		Unchanged: 0/0
  3379 ;; Data sizes:     COMMON   BANK0   BANK1   BANK3   BANK2
  3380 ;;      Params:         0       0       0       0       0
  3381 ;;      Locals:         0       0       0       0       0
  3382 ;;      Temps:          0       0       0       0       0
  3383 ;;      Totals:         0       0       0       0       0
  3384 ;;Total ram usage:        0 bytes
  3385 ;; Hardware stack levels used: 1
  3386 ;; Hardware stack levels required when called: 1
  3387 ;; This function calls:
  3388 ;;		Nothing
  3389 ;; This function is called by:
  3390 ;;		_fputc
  3391 ;; This function uses a non-reentrant model
  3392 ;;
  3393                           
  3394     0003                     _putch:	
  3395                           ;psect for function _putch
  3396                           
  3397     0003                     l838:	
  3398                           ;incstack = 0
  3399                           ; Regs used in _putch: [wreg]
  3400                           
  3401     0003  0008               	return
  3402     0004                     __end_of_putch:
  3403                           
  3404                           	psect	text6
  3405     0B7E                     __ptext6:	
  3406 ;; *************** function _abs *****************
  3407 ;; Defined at:
  3408 ;;		line 1 in file "C:\Program Files\Microchip\xc8\v3.10\pic\sources\c99\common\abs.c"
  3409 ;; Parameters:    Size  Location     Type
  3410 ;;  a               2    8[COMMON] int 
  3411 ;; Auto vars:     Size  Location     Type
  3412 ;;		None
  3413 ;; Return value:  Size  Location     Type
  3414 ;;                  2    8[COMMON] int 
  3415 ;; Registers used:
  3416 ;;		wreg, status,2, status,0
  3417 ;; Tracked objects:
  3418 ;;		On entry : 0/0
  3419 ;;		On exit  : 0/0
  3420 ;;		Unchanged: 0/0
  3421 ;; Data sizes:     COMMON   BANK0   BANK1   BANK3   BANK2
  3422 ;;      Params:         2       0       0       0       0
  3423 ;;      Locals:         0       0       0       0       0
  3424 ;;      Temps:          2       0       0       0       0
  3425 ;;      Totals:         4       0       0       0       0
  3426 ;;Total ram usage:        4 bytes
  3427 ;; Hardware stack levels used: 1
  3428 ;; Hardware stack levels required when called: 1
  3429 ;; This function calls:
  3430 ;;		Nothing
  3431 ;; This function is called by:
  3432 ;;		_vfpfcnvrt
  3433 ;; This function uses a non-reentrant model
  3434 ;;
  3435                           
  3436     0B7E                     _abs:	
  3437                           ;psect for function _abs
  3438                           
  3439     0B7E                     l1622:	
  3440                           ;incstack = 0
  3441                           ; Regs used in _abs: [wreg+status,2+status,0]
  3442                           
  3443     0B7E  1BF9               	btfsc	abs@a+1,7
  3444     0B7F  2B81               	goto	u1381
  3445     0B80  2B82               	goto	u1380
  3446     0B81                     u1381:
  3447     0B81  2B83               	goto	l1626
  3448     0B82                     u1380:
  3449     0B82                     l1624:
  3450     0B82  2B8E               	goto	l815
  3451     0B83                     l1626:
  3452     0B83  0978               	comf	abs@a,w
  3453     0B84  00FA               	movwf	??_abs
  3454     0B85  0979               	comf	abs@a+1,w
  3455     0B86  00FB               	movwf	??_abs+1
  3456     0B87  0AFA               	incf	??_abs,f
  3457     0B88  1903               	skipnz
  3458     0B89  0AFB               	incf	??_abs+1,f
  3459     0B8A  087A               	movf	??_abs,w
  3460     0B8B  00F8               	movwf	?_abs
  3461     0B8C  087B               	movf	??_abs+1,w
  3462     0B8D  00F9               	movwf	?_abs+1
  3463     0B8E                     l815:
  3464     0B8E  0008               	return
  3465     0B8F                     __end_of_abs:
  3466                           
  3467                           	psect	text7
  3468     0D49                     __ptext7:	
  3469 ;; *************** function ___awmod *****************
  3470 ;; Defined at:
  3471 ;;		line 5 in file "C:\Program Files\Microchip\xc8\v3.10\pic\sources\c99\common\awmod.c"
  3472 ;; Parameters:    Size  Location     Type
  3473 ;;  divisor         2    2[COMMON] int 
  3474 ;;  dividend        2    4[COMMON] int 
  3475 ;; Auto vars:     Size  Location     Type
  3476 ;;  sign            1    7[COMMON] unsigned char 
  3477 ;;  counter         1    6[COMMON] unsigned char 
  3478 ;; Return value:  Size  Location     Type
  3479 ;;                  2    2[COMMON] int 
  3480 ;; Registers used:
  3481 ;;		wreg, status,2, status,0
  3482 ;; Tracked objects:
  3483 ;;		On entry : 0/0
  3484 ;;		On exit  : 0/0
  3485 ;;		Unchanged: 0/0
  3486 ;; Data sizes:     COMMON   BANK0   BANK1   BANK3   BANK2
  3487 ;;      Params:         4       0       0       0       0
  3488 ;;      Locals:         2       0       0       0       0
  3489 ;;      Temps:          0       0       0       0       0
  3490 ;;      Totals:         6       0       0       0       0
  3491 ;;Total ram usage:        6 bytes
  3492 ;; Hardware stack levels used: 1
  3493 ;; Hardware stack levels required when called: 1
  3494 ;; This function calls:
  3495 ;;		Nothing
  3496 ;; This function is called by:
  3497 ;;		_vfpfcnvrt
  3498 ;; This function uses a non-reentrant model
  3499 ;;
  3500                           
  3501     0D49                     ___awmod:	
  3502                           ;psect for function ___awmod
  3503                           
  3504     0D49                     l1570:	
  3505                           ;incstack = 0
  3506                           ; Regs used in ___awmod: [wreg+status,2+status,0]
  3507                           
  3508     0D49  01F7               	clrf	___awmod@sign
  3509     0D4A                     l1572:
  3510     0D4A  1FF5               	btfss	___awmod@dividend+1,7
  3511     0D4B  2D4D               	goto	u1241
  3512     0D4C  2D4E               	goto	u1240
  3513     0D4D                     u1241:
  3514     0D4D  2D55               	goto	l1578
  3515     0D4E                     u1240:
  3516     0D4E                     l1574:
  3517     0D4E  09F4               	comf	___awmod@dividend,f
  3518     0D4F  09F5               	comf	___awmod@dividend+1,f
  3519     0D50  0AF4               	incf	___awmod@dividend,f
  3520     0D51  1903               	skipnz
  3521     0D52  0AF5               	incf	___awmod@dividend+1,f
  3522     0D53                     l1576:
  3523     0D53  3001               	movlw	1
  3524     0D54  00F7               	movwf	___awmod@sign
  3525     0D55                     l1578:
  3526     0D55  1FF3               	btfss	___awmod@divisor+1,7
  3527     0D56  2D58               	goto	u1251
  3528     0D57  2D59               	goto	u1250
  3529     0D58                     u1251:
  3530     0D58  2D5E               	goto	l1582
  3531     0D59                     u1250:
  3532     0D59                     l1580:
  3533     0D59  09F2               	comf	___awmod@divisor,f
  3534     0D5A  09F3               	comf	___awmod@divisor+1,f
  3535     0D5B  0AF2               	incf	___awmod@divisor,f
  3536     0D5C  1903               	skipnz
  3537     0D5D  0AF3               	incf	___awmod@divisor+1,f
  3538     0D5E                     l1582:
  3539     0D5E  0872               	movf	___awmod@divisor,w
  3540     0D5F  0473               	iorwf	___awmod@divisor+1,w
  3541     0D60  1903               	btfsc	3,2
  3542     0D61  2D63               	goto	u1261
  3543     0D62  2D64               	goto	u1260
  3544     0D63                     u1261:
  3545     0D63  2D91               	goto	l1600
  3546     0D64                     u1260:
  3547     0D64                     l1584:
  3548     0D64  3001               	movlw	1
  3549     0D65  00F6               	movwf	___awmod@counter
  3550     0D66  2D70               	goto	l1590
  3551     0D67                     l1586:
  3552     0D67  3001               	movlw	1
  3553     0D68                     u1275:
  3554     0D68  1003               	clrc
  3555     0D69  0DF2               	rlf	___awmod@divisor,f
  3556     0D6A  0DF3               	rlf	___awmod@divisor+1,f
  3557     0D6B  3EFF               	addlw	-1
  3558     0D6C  1D03               	skipz
  3559     0D6D  2D68               	goto	u1275
  3560     0D6E                     l1588:
  3561     0D6E  3001               	movlw	1
  3562     0D6F  07F6               	addwf	___awmod@counter,f
  3563     0D70                     l1590:
  3564     0D70  1FF3               	btfss	___awmod@divisor+1,7
  3565     0D71  2D73               	goto	u1281
  3566     0D72  2D74               	goto	u1280
  3567     0D73                     u1281:
  3568     0D73  2D67               	goto	l1586
  3569     0D74                     u1280:
  3570     0D74                     l1592:
  3571     0D74  0873               	movf	___awmod@divisor+1,w
  3572     0D75  0275               	subwf	___awmod@dividend+1,w
  3573     0D76  1D03               	skipz
  3574     0D77  2D7A               	goto	u1295
  3575     0D78  0872               	movf	___awmod@divisor,w
  3576     0D79  0274               	subwf	___awmod@dividend,w
  3577     0D7A                     u1295:
  3578     0D7A  1C03               	skipc
  3579     0D7B  2D7D               	goto	u1291
  3580     0D7C  2D7E               	goto	u1290
  3581     0D7D                     u1291:
  3582     0D7D  2D84               	goto	l1596
  3583     0D7E                     u1290:
  3584     0D7E                     l1594:
  3585     0D7E  0872               	movf	___awmod@divisor,w
  3586     0D7F  02F4               	subwf	___awmod@dividend,f
  3587     0D80  0873               	movf	___awmod@divisor+1,w
  3588     0D81  1C03               	skipc
  3589     0D82  03F5               	decf	___awmod@dividend+1,f
  3590     0D83  02F5               	subwf	___awmod@dividend+1,f
  3591     0D84                     l1596:
  3592     0D84  3001               	movlw	1
  3593     0D85                     u1305:
  3594     0D85  1003               	clrc
  3595     0D86  0CF3               	rrf	___awmod@divisor+1,f
  3596     0D87  0CF2               	rrf	___awmod@divisor,f
  3597     0D88  3EFF               	addlw	-1
  3598     0D89  1D03               	skipz
  3599     0D8A  2D85               	goto	u1305
  3600     0D8B                     l1598:
  3601     0D8B  3001               	movlw	1
  3602     0D8C  02F6               	subwf	___awmod@counter,f
  3603     0D8D  1D03               	btfss	3,2
  3604     0D8E  2D90               	goto	u1311
  3605     0D8F  2D91               	goto	u1310
  3606     0D90                     u1311:
  3607     0D90  2D74               	goto	l1592
  3608     0D91                     u1310:
  3609     0D91                     l1600:
  3610     0D91  0877               	movf	___awmod@sign,w
  3611     0D92  1903               	btfsc	3,2
  3612     0D93  2D95               	goto	u1321
  3613     0D94  2D96               	goto	u1320
  3614     0D95                     u1321:
  3615     0D95  2D9B               	goto	l1604
  3616     0D96                     u1320:
  3617     0D96                     l1602:
  3618     0D96  09F4               	comf	___awmod@dividend,f
  3619     0D97  09F5               	comf	___awmod@dividend+1,f
  3620     0D98  0AF4               	incf	___awmod@dividend,f
  3621     0D99  1903               	skipnz
  3622     0D9A  0AF5               	incf	___awmod@dividend+1,f
  3623     0D9B                     l1604:
  3624     0D9B  0875               	movf	___awmod@dividend+1,w
  3625     0D9C  00F3               	movwf	?___awmod+1
  3626     0D9D  0874               	movf	___awmod@dividend,w
  3627     0D9E  00F2               	movwf	?___awmod
  3628     0D9F                     l466:
  3629     0D9F  0008               	return
  3630     0DA0                     __end_of___awmod:
  3631                           
  3632                           	psect	text8
  3633     0DFE                     __ptext8:	
  3634 ;; *************** function ___awdiv *****************
  3635 ;; Defined at:
  3636 ;;		line 5 in file "C:\Program Files\Microchip\xc8\v3.10\pic\sources\c99\common\awdiv.c"
  3637 ;; Parameters:    Size  Location     Type
  3638 ;;  divisor         2    2[COMMON] int 
  3639 ;;  dividend        2    4[COMMON] int 
  3640 ;; Auto vars:     Size  Location     Type
  3641 ;;  quotient        2    8[COMMON] int 
  3642 ;;  sign            1    7[COMMON] unsigned char 
  3643 ;;  counter         1    6[COMMON] unsigned char 
  3644 ;; Return value:  Size  Location     Type
  3645 ;;                  2    2[COMMON] int 
  3646 ;; Registers used:
  3647 ;;		wreg, status,2, status,0
  3648 ;; Tracked objects:
  3649 ;;		On entry : 0/0
  3650 ;;		On exit  : 0/0
  3651 ;;		Unchanged: 0/0
  3652 ;; Data sizes:     COMMON   BANK0   BANK1   BANK3   BANK2
  3653 ;;      Params:         4       0       0       0       0
  3654 ;;      Locals:         4       0       0       0       0
  3655 ;;      Temps:          0       0       0       0       0
  3656 ;;      Totals:         8       0       0       0       0
  3657 ;;Total ram usage:        8 bytes
  3658 ;; Hardware stack levels used: 1
  3659 ;; Hardware stack levels required when called: 1
  3660 ;; This function calls:
  3661 ;;		Nothing
  3662 ;; This function is called by:
  3663 ;;		_vfpfcnvrt
  3664 ;; This function uses a non-reentrant model
  3665 ;;
  3666                           
  3667     0DFE                     ___awdiv:	
  3668                           ;psect for function ___awdiv
  3669                           
  3670     0DFE                     l1526:	
  3671                           ;incstack = 0
  3672                           ; Regs used in ___awdiv: [wreg+status,2+status,0]
  3673                           
  3674     0DFE  01F7               	clrf	___awdiv@sign
  3675     0DFF                     l1528:
  3676     0DFF  1FF3               	btfss	___awdiv@divisor+1,7
  3677     0E00  2E02               	goto	u1141
  3678     0E01  2E03               	goto	u1140
  3679     0E02                     u1141:
  3680     0E02  2E0A               	goto	l1534
  3681     0E03                     u1140:
  3682     0E03                     l1530:
  3683     0E03  09F2               	comf	___awdiv@divisor,f
  3684     0E04  09F3               	comf	___awdiv@divisor+1,f
  3685     0E05  0AF2               	incf	___awdiv@divisor,f
  3686     0E06  1903               	skipnz
  3687     0E07  0AF3               	incf	___awdiv@divisor+1,f
  3688     0E08                     l1532:
  3689     0E08  3001               	movlw	1
  3690     0E09  00F7               	movwf	___awdiv@sign
  3691     0E0A                     l1534:
  3692     0E0A  1FF5               	btfss	___awdiv@dividend+1,7
  3693     0E0B  2E0D               	goto	u1151
  3694     0E0C  2E0E               	goto	u1150
  3695     0E0D                     u1151:
  3696     0E0D  2E15               	goto	l1540
  3697     0E0E                     u1150:
  3698     0E0E                     l1536:
  3699     0E0E  09F4               	comf	___awdiv@dividend,f
  3700     0E0F  09F5               	comf	___awdiv@dividend+1,f
  3701     0E10  0AF4               	incf	___awdiv@dividend,f
  3702     0E11  1903               	skipnz
  3703     0E12  0AF5               	incf	___awdiv@dividend+1,f
  3704     0E13                     l1538:
  3705     0E13  3001               	movlw	1
  3706     0E14  06F7               	xorwf	___awdiv@sign,f
  3707     0E15                     l1540:
  3708     0E15  01F8               	clrf	___awdiv@quotient
  3709     0E16  01F9               	clrf	___awdiv@quotient+1
  3710     0E17                     l1542:
  3711     0E17  0872               	movf	___awdiv@divisor,w
  3712     0E18  0473               	iorwf	___awdiv@divisor+1,w
  3713     0E19  1903               	btfsc	3,2
  3714     0E1A  2E1C               	goto	u1161
  3715     0E1B  2E1D               	goto	u1160
  3716     0E1C                     u1161:
  3717     0E1C  2E52               	goto	l1562
  3718     0E1D                     u1160:
  3719     0E1D                     l1544:
  3720     0E1D  3001               	movlw	1
  3721     0E1E  00F6               	movwf	___awdiv@counter
  3722     0E1F  2E29               	goto	l1550
  3723     0E20                     l1546:
  3724     0E20  3001               	movlw	1
  3725     0E21                     u1175:
  3726     0E21  1003               	clrc
  3727     0E22  0DF2               	rlf	___awdiv@divisor,f
  3728     0E23  0DF3               	rlf	___awdiv@divisor+1,f
  3729     0E24  3EFF               	addlw	-1
  3730     0E25  1D03               	skipz
  3731     0E26  2E21               	goto	u1175
  3732     0E27                     l1548:
  3733     0E27  3001               	movlw	1
  3734     0E28  07F6               	addwf	___awdiv@counter,f
  3735     0E29                     l1550:
  3736     0E29  1FF3               	btfss	___awdiv@divisor+1,7
  3737     0E2A  2E2C               	goto	u1181
  3738     0E2B  2E2D               	goto	u1180
  3739     0E2C                     u1181:
  3740     0E2C  2E20               	goto	l1546
  3741     0E2D                     u1180:
  3742     0E2D                     l1552:
  3743     0E2D  3001               	movlw	1
  3744     0E2E                     u1195:
  3745     0E2E  1003               	clrc
  3746     0E2F  0DF8               	rlf	___awdiv@quotient,f
  3747     0E30  0DF9               	rlf	___awdiv@quotient+1,f
  3748     0E31  3EFF               	addlw	-1
  3749     0E32  1D03               	skipz
  3750     0E33  2E2E               	goto	u1195
  3751     0E34  0873               	movf	___awdiv@divisor+1,w
  3752     0E35  0275               	subwf	___awdiv@dividend+1,w
  3753     0E36  1D03               	skipz
  3754     0E37  2E3A               	goto	u1205
  3755     0E38  0872               	movf	___awdiv@divisor,w
  3756     0E39  0274               	subwf	___awdiv@dividend,w
  3757     0E3A                     u1205:
  3758     0E3A  1C03               	skipc
  3759     0E3B  2E3D               	goto	u1201
  3760     0E3C  2E3E               	goto	u1200
  3761     0E3D                     u1201:
  3762     0E3D  2E45               	goto	l1558
  3763     0E3E                     u1200:
  3764     0E3E                     l1554:
  3765     0E3E  0872               	movf	___awdiv@divisor,w
  3766     0E3F  02F4               	subwf	___awdiv@dividend,f
  3767     0E40  0873               	movf	___awdiv@divisor+1,w
  3768     0E41  1C03               	skipc
  3769     0E42  03F5               	decf	___awdiv@dividend+1,f
  3770     0E43  02F5               	subwf	___awdiv@dividend+1,f
  3771     0E44                     l1556:
  3772     0E44  1478               	bsf	___awdiv@quotient,0
  3773     0E45                     l1558:
  3774     0E45  3001               	movlw	1
  3775     0E46                     u1215:
  3776     0E46  1003               	clrc
  3777     0E47  0CF3               	rrf	___awdiv@divisor+1,f
  3778     0E48  0CF2               	rrf	___awdiv@divisor,f
  3779     0E49  3EFF               	addlw	-1
  3780     0E4A  1D03               	skipz
  3781     0E4B  2E46               	goto	u1215
  3782     0E4C                     l1560:
  3783     0E4C  3001               	movlw	1
  3784     0E4D  02F6               	subwf	___awdiv@counter,f
  3785     0E4E  1D03               	btfss	3,2
  3786     0E4F  2E51               	goto	u1221
  3787     0E50  2E52               	goto	u1220
  3788     0E51                     u1221:
  3789     0E51  2E2D               	goto	l1552
  3790     0E52                     u1220:
  3791     0E52                     l1562:
  3792     0E52  0877               	movf	___awdiv@sign,w
  3793     0E53  1903               	btfsc	3,2
  3794     0E54  2E56               	goto	u1231
  3795     0E55  2E57               	goto	u1230
  3796     0E56                     u1231:
  3797     0E56  2E5C               	goto	l1566
  3798     0E57                     u1230:
  3799     0E57                     l1564:
  3800     0E57  09F8               	comf	___awdiv@quotient,f
  3801     0E58  09F9               	comf	___awdiv@quotient+1,f
  3802     0E59  0AF8               	incf	___awdiv@quotient,f
  3803     0E5A  1903               	skipnz
  3804     0E5B  0AF9               	incf	___awdiv@quotient+1,f
  3805     0E5C                     l1566:
  3806     0E5C  0879               	movf	___awdiv@quotient+1,w
  3807     0E5D  00F3               	movwf	?___awdiv+1
  3808     0E5E  0878               	movf	___awdiv@quotient,w
  3809     0E5F  00F2               	movwf	?___awdiv
  3810     0E60                     l453:
  3811     0E60  0008               	return
  3812     0E61                     __end_of___awdiv:
  3813                           
  3814                           	psect	text9
  3815     0CFD                     __ptext9:	
  3816 ;; *************** function ___lmul *****************
  3817 ;; Defined at:
  3818 ;;		line 15 in file "C:\Program Files\Microchip\xc8\v3.10\pic\sources\c99\common\Umul32.c"
  3819 ;; Parameters:    Size  Location     Type
  3820 ;;  multiplier      4    2[COMMON] unsigned long 
  3821 ;;  multiplicand    4    6[COMMON] unsigned long 
  3822 ;; Auto vars:     Size  Location     Type
  3823 ;;  product         4    0[BANK0 ] unsigned long 
  3824 ;; Return value:  Size  Location     Type
  3825 ;;                  4    2[COMMON] unsigned long 
  3826 ;; Registers used:
  3827 ;;		wreg, status,2, status,0
  3828 ;; Tracked objects:
  3829 ;;		On entry : 0/0
  3830 ;;		On exit  : 0/0
  3831 ;;		Unchanged: 0/0
  3832 ;; Data sizes:     COMMON   BANK0   BANK1   BANK3   BANK2
  3833 ;;      Params:         8       0       0       0       0
  3834 ;;      Locals:         0       4       0       0       0
  3835 ;;      Temps:          1       0       0       0       0
  3836 ;;      Totals:         9       4       0       0       0
  3837 ;;Total ram usage:       13 bytes
  3838 ;; Hardware stack levels used: 1
  3839 ;; Hardware stack levels required when called: 1
  3840 ;; This function calls:
  3841 ;;		Nothing
  3842 ;; This function is called by:
  3843 ;;		_main
  3844 ;; This function uses a non-reentrant model
  3845 ;;
  3846                           
  3847     0CFD                     ___lmul:	
  3848                           ;psect for function ___lmul
  3849                           
  3850     0CFD                     l1900:	
  3851                           ;incstack = 0
  3852                           ; Regs used in ___lmul: [wreg+status,2+status,0]
  3853                           
  3854     0CFD  3000               	movlw	0
  3855     0CFE  1283               	bcf	3,5	;RP0=0, select bank0
  3856     0CFF  1303               	bcf	3,6	;RP1=0, select bank0
  3857     0D00  00A3               	movwf	___lmul@product+3
  3858     0D01  3000               	movlw	0
  3859     0D02  00A2               	movwf	___lmul@product+2
  3860     0D03  3000               	movlw	0
  3861     0D04  00A1               	movwf	___lmul@product+1
  3862     0D05  3000               	movlw	0
  3863     0D06  00A0               	movwf	___lmul@product
  3864     0D07                     l1902:
  3865     0D07  1C72               	btfss	___lmul@multiplier,0
  3866     0D08  2D0A               	goto	u1811
  3867     0D09  2D0B               	goto	u1810
  3868     0D0A                     u1811:
  3869     0D0A  2D24               	goto	l1906
  3870     0D0B                     u1810:
  3871     0D0B                     l1904:
  3872     0D0B  0876               	movf	___lmul@multiplicand,w
  3873     0D0C  1283               	bcf	3,5	;RP0=0, select bank0
  3874     0D0D  1303               	bcf	3,6	;RP1=0, select bank0
  3875     0D0E  07A0               	addwf	___lmul@product,f
  3876     0D0F  0877               	movf	___lmul@multiplicand+1,w
  3877     0D10  1103               	clrz
  3878     0D11  1803               	skipnc
  3879     0D12  3E01               	addlw	1
  3880     0D13  1903               	skipnz
  3881     0D14  2D16               	goto	u1821
  3882     0D15  07A1               	addwf	___lmul@product+1,f
  3883     0D16                     u1821:
  3884     0D16  0878               	movf	___lmul@multiplicand+2,w
  3885     0D17  1103               	clrz
  3886     0D18  1803               	skipnc
  3887     0D19  3E01               	addlw	1
  3888     0D1A  1903               	skipnz
  3889     0D1B  2D1D               	goto	u1822
  3890     0D1C  07A2               	addwf	___lmul@product+2,f
  3891     0D1D                     u1822:
  3892     0D1D  0879               	movf	___lmul@multiplicand+3,w
  3893     0D1E  1103               	clrz
  3894     0D1F  1803               	skipnc
  3895     0D20  3E01               	addlw	1
  3896     0D21  1903               	skipnz
  3897     0D22  2D24               	goto	u1823
  3898     0D23  07A3               	addwf	___lmul@product+3,f
  3899     0D24                     u1823:
  3900     0D24                     l1906:
  3901     0D24  3001               	movlw	1
  3902     0D25  00FA               	movwf	??___lmul
  3903     0D26                     u1835:
  3904     0D26  1003               	clrc
  3905     0D27  0DF6               	rlf	___lmul@multiplicand,f
  3906     0D28  0DF7               	rlf	___lmul@multiplicand+1,f
  3907     0D29  0DF8               	rlf	___lmul@multiplicand+2,f
  3908     0D2A  0DF9               	rlf	___lmul@multiplicand+3,f
  3909     0D2B  0BFA               	decfsz	??___lmul,f
  3910     0D2C  2D26               	goto	u1835
  3911     0D2D                     l1908:
  3912     0D2D  3001               	movlw	1
  3913     0D2E                     u1845:
  3914     0D2E  1003               	clrc
  3915     0D2F  0CF5               	rrf	___lmul@multiplier+3,f
  3916     0D30  0CF4               	rrf	___lmul@multiplier+2,f
  3917     0D31  0CF3               	rrf	___lmul@multiplier+1,f
  3918     0D32  0CF2               	rrf	___lmul@multiplier,f
  3919     0D33  3EFF               	addlw	-1
  3920     0D34  1D03               	skipz
  3921     0D35  2D2E               	goto	u1845
  3922     0D36  0875               	movf	___lmul@multiplier+3,w
  3923     0D37  0474               	iorwf	___lmul@multiplier+2,w
  3924     0D38  0473               	iorwf	___lmul@multiplier+1,w
  3925     0D39  0472               	iorwf	___lmul@multiplier,w
  3926     0D3A  1D03               	skipz
  3927     0D3B  2D3D               	goto	u1851
  3928     0D3C  2D3E               	goto	u1850
  3929     0D3D                     u1851:
  3930     0D3D  2D07               	goto	l1902
  3931     0D3E                     u1850:
  3932     0D3E                     l1910:
  3933     0D3E  1283               	bcf	3,5	;RP0=0, select bank0
  3934     0D3F  1303               	bcf	3,6	;RP1=0, select bank0
  3935     0D40  0823               	movf	___lmul@product+3,w
  3936     0D41  00F5               	movwf	?___lmul+3
  3937     0D42  0822               	movf	___lmul@product+2,w
  3938     0D43  00F4               	movwf	?___lmul+2
  3939     0D44  0821               	movf	___lmul@product+1,w
  3940     0D45  00F3               	movwf	?___lmul+1
  3941     0D46  0820               	movf	___lmul@product,w
  3942     0D47  00F2               	movwf	?___lmul
  3943     0D48                     l314:
  3944     0D48  0008               	return
  3945     0D49                     __end_of___lmul:
  3946                           
  3947                           	psect	text10
  3948     0E61                     __ptext10:	
  3949 ;; *************** function ___lldiv *****************
  3950 ;; Defined at:
  3951 ;;		line 5 in file "C:\Program Files\Microchip\xc8\v3.10\pic\sources\c99\common\__lldiv.c"
  3952 ;; Parameters:    Size  Location     Type
  3953 ;;  divisor         4    4[BANK0 ] unsigned long 
  3954 ;;  dividend        4    8[BANK0 ] unsigned long 
  3955 ;; Auto vars:     Size  Location     Type
  3956 ;;  quotient        4   12[BANK0 ] unsigned long 
  3957 ;;  counter         1   16[BANK0 ] unsigned char 
  3958 ;; Return value:  Size  Location     Type
  3959 ;;                  4    4[BANK0 ] unsigned long 
  3960 ;; Registers used:
  3961 ;;		wreg, status,2, status,0
  3962 ;; Tracked objects:
  3963 ;;		On entry : 0/0
  3964 ;;		On exit  : 0/0
  3965 ;;		Unchanged: 0/0
  3966 ;; Data sizes:     COMMON   BANK0   BANK1   BANK3   BANK2
  3967 ;;      Params:         0       8       0       0       0
  3968 ;;      Locals:         0       5       0       0       0
  3969 ;;      Temps:          1       0       0       0       0
  3970 ;;      Totals:         1      13       0       0       0
  3971 ;;Total ram usage:       14 bytes
  3972 ;; Hardware stack levels used: 1
  3973 ;; Hardware stack levels required when called: 1
  3974 ;; This function calls:
  3975 ;;		Nothing
  3976 ;; This function is called by:
  3977 ;;		_main
  3978 ;; This function uses a non-reentrant model
  3979 ;;
  3980                           
  3981     0E61                     ___lldiv:	
  3982                           ;psect for function ___lldiv
  3983                           
  3984     0E61                     l1914:	
  3985                           ;incstack = 0
  3986                           ; Regs used in ___lldiv: [wreg+status,2+status,0]
  3987                           
  3988     0E61  3000               	movlw	0
  3989     0E62  1283               	bcf	3,5	;RP0=0, select bank0
  3990     0E63  1303               	bcf	3,6	;RP1=0, select bank0
  3991     0E64  00AF               	movwf	___lldiv@quotient+3
  3992     0E65  3000               	movlw	0
  3993     0E66  00AE               	movwf	___lldiv@quotient+2
  3994     0E67  3000               	movlw	0
  3995     0E68  00AD               	movwf	___lldiv@quotient+1
  3996     0E69  3000               	movlw	0
  3997     0E6A  00AC               	movwf	___lldiv@quotient
  3998     0E6B  0827               	movf	___lldiv@divisor+3,w
  3999     0E6C  0426               	iorwf	___lldiv@divisor+2,w
  4000     0E6D  0425               	iorwf	___lldiv@divisor+1,w
  4001     0E6E  0424               	iorwf	___lldiv@divisor,w
  4002     0E6F  1903               	skipnz
  4003     0E70  2E72               	goto	u1861
  4004     0E71  2E73               	goto	u1860
  4005     0E72                     u1861:
  4006     0E72  2EBE               	goto	l1934
  4007     0E73                     u1860:
  4008     0E73                     l1916:
  4009     0E73  3001               	movlw	1
  4010     0E74  00B0               	movwf	___lldiv@counter
  4011     0E75  2E81               	goto	l1920
  4012     0E76                     l1918:
  4013     0E76  3001               	movlw	1
  4014     0E77  00FB               	movwf	??___lldiv
  4015     0E78                     u1875:
  4016     0E78  1003               	clrc
  4017     0E79  0DA4               	rlf	___lldiv@divisor,f
  4018     0E7A  0DA5               	rlf	___lldiv@divisor+1,f
  4019     0E7B  0DA6               	rlf	___lldiv@divisor+2,f
  4020     0E7C  0DA7               	rlf	___lldiv@divisor+3,f
  4021     0E7D  0BFB               	decfsz	??___lldiv,f
  4022     0E7E  2E78               	goto	u1875
  4023     0E7F  3001               	movlw	1
  4024     0E80  07B0               	addwf	___lldiv@counter,f
  4025     0E81                     l1920:
  4026     0E81  1FA7               	btfss	___lldiv@divisor+3,7
  4027     0E82  2E84               	goto	u1881
  4028     0E83  2E85               	goto	u1880
  4029     0E84                     u1881:
  4030     0E84  2E76               	goto	l1918
  4031     0E85                     u1880:
  4032     0E85                     l1922:
  4033     0E85  3001               	movlw	1
  4034     0E86  00FB               	movwf	??___lldiv
  4035     0E87                     u1895:
  4036     0E87  1003               	clrc
  4037     0E88  0DAC               	rlf	___lldiv@quotient,f
  4038     0E89  0DAD               	rlf	___lldiv@quotient+1,f
  4039     0E8A  0DAE               	rlf	___lldiv@quotient+2,f
  4040     0E8B  0DAF               	rlf	___lldiv@quotient+3,f
  4041     0E8C  0BFB               	decfsz	??___lldiv,f
  4042     0E8D  2E87               	goto	u1895
  4043     0E8E                     l1924:
  4044     0E8E  0827               	movf	___lldiv@divisor+3,w
  4045     0E8F  022B               	subwf	___lldiv@dividend+3,w
  4046     0E90  1D03               	skipz
  4047     0E91  2E9C               	goto	u1905
  4048     0E92  0826               	movf	___lldiv@divisor+2,w
  4049     0E93  022A               	subwf	___lldiv@dividend+2,w
  4050     0E94  1D03               	skipz
  4051     0E95  2E9C               	goto	u1905
  4052     0E96  0825               	movf	___lldiv@divisor+1,w
  4053     0E97  0229               	subwf	___lldiv@dividend+1,w
  4054     0E98  1D03               	skipz
  4055     0E99  2E9C               	goto	u1905
  4056     0E9A  0824               	movf	___lldiv@divisor,w
  4057     0E9B  0228               	subwf	___lldiv@dividend,w
  4058     0E9C                     u1905:
  4059     0E9C  1C03               	skipc
  4060     0E9D  2E9F               	goto	u1901
  4061     0E9E  2EA0               	goto	u1900
  4062     0E9F                     u1901:
  4063     0E9F  2EAF               	goto	l1930
  4064     0EA0                     u1900:
  4065     0EA0                     l1926:
  4066     0EA0  0824               	movf	___lldiv@divisor,w
  4067     0EA1  02A8               	subwf	___lldiv@dividend,f
  4068     0EA2  0825               	movf	___lldiv@divisor+1,w
  4069     0EA3  1C03               	skipc
  4070     0EA4  0F25               	incfsz	___lldiv@divisor+1,w
  4071     0EA5  02A9               	subwf	___lldiv@dividend+1,f
  4072     0EA6  0826               	movf	___lldiv@divisor+2,w
  4073     0EA7  1C03               	skipc
  4074     0EA8  0F26               	incfsz	___lldiv@divisor+2,w
  4075     0EA9  02AA               	subwf	___lldiv@dividend+2,f
  4076     0EAA  0827               	movf	___lldiv@divisor+3,w
  4077     0EAB  1C03               	skipc
  4078     0EAC  0F27               	incfsz	___lldiv@divisor+3,w
  4079     0EAD  02AB               	subwf	___lldiv@dividend+3,f
  4080     0EAE                     l1928:
  4081     0EAE  142C               	bsf	___lldiv@quotient,0
  4082     0EAF                     l1930:
  4083     0EAF  3001               	movlw	1
  4084     0EB0                     u1915:
  4085     0EB0  1003               	clrc
  4086     0EB1  0CA7               	rrf	___lldiv@divisor+3,f
  4087     0EB2  0CA6               	rrf	___lldiv@divisor+2,f
  4088     0EB3  0CA5               	rrf	___lldiv@divisor+1,f
  4089     0EB4  0CA4               	rrf	___lldiv@divisor,f
  4090     0EB5  3EFF               	addlw	-1
  4091     0EB6  1D03               	skipz
  4092     0EB7  2EB0               	goto	u1915
  4093     0EB8                     l1932:
  4094     0EB8  3001               	movlw	1
  4095     0EB9  02B0               	subwf	___lldiv@counter,f
  4096     0EBA  1D03               	btfss	3,2
  4097     0EBB  2EBD               	goto	u1921
  4098     0EBC  2EBE               	goto	u1920
  4099     0EBD                     u1921:
  4100     0EBD  2E85               	goto	l1922
  4101     0EBE                     u1920:
  4102     0EBE                     l1934:
  4103     0EBE  082F               	movf	___lldiv@quotient+3,w
  4104     0EBF  00A7               	movwf	?___lldiv+3
  4105     0EC0  082E               	movf	___lldiv@quotient+2,w
  4106     0EC1  00A6               	movwf	?___lldiv+2
  4107     0EC2  082D               	movf	___lldiv@quotient+1,w
  4108     0EC3  00A5               	movwf	?___lldiv+1
  4109     0EC4  082C               	movf	___lldiv@quotient,w
  4110     0EC5  00A4               	movwf	?___lldiv
  4111     0EC6                     l336:
  4112     0EC6  0008               	return
  4113     0EC7                     __end_of___lldiv:
  4114                           
  4115                           	psect	text11
  4116     0B60                     __ptext11:	
  4117 ;; *************** function _UART_Write *****************
  4118 ;; Defined at:
  4119 ;;		line 50 in file "fuzzer.c"
  4120 ;; Parameters:    Size  Location     Type
  4121 ;;  d               1    wreg     unsigned char 
  4122 ;; Auto vars:     Size  Location     Type
  4123 ;;  d               1    2[COMMON] unsigned char 
  4124 ;; Return value:  Size  Location     Type
  4125 ;;                  1    wreg      void 
  4126 ;; Registers used:
  4127 ;;		wreg
  4128 ;; Tracked objects:
  4129 ;;		On entry : 0/0
  4130 ;;		On exit  : 0/0
  4131 ;;		Unchanged: 0/0
  4132 ;; Data sizes:     COMMON   BANK0   BANK1   BANK3   BANK2
  4133 ;;      Params:         0       0       0       0       0
  4134 ;;      Locals:         1       0       0       0       0
  4135 ;;      Temps:          0       0       0       0       0
  4136 ;;      Totals:         1       0       0       0       0
  4137 ;;Total ram usage:        1 bytes
  4138 ;; Hardware stack levels used: 1
  4139 ;; Hardware stack levels required when called: 1
  4140 ;; This function calls:
  4141 ;;		Nothing
  4142 ;; This function is called by:
  4143 ;;		_main
  4144 ;;		_UART_Write_String
  4145 ;; This function uses a non-reentrant model
  4146 ;;
  4147                           
  4148     0B60                     _UART_Write:	
  4149                           ;psect for function _UART_Write
  4150                           
  4151                           
  4152                           ;incstack = 0
  4153                           ; Regs used in _UART_Write: [wreg]
  4154                           ;UART_Write@d stored from wreg
  4155     0B60  00F2               	movwf	UART_Write@d
  4156     0B61                     l1860:
  4157     0B61  2B63               	goto	l119
  4158     0B62                     l120:
  4159     0B62  0064               	clrwdt	;# 
  4160     0B63                     l119:
  4161     0B63  1683               	bsf	3,5	;RP0=1, select bank1
  4162     0B64  1303               	bcf	3,6	;RP1=0, select bank1
  4163     0B65  1C98               	btfss	24,1	;volatile
  4164     0B66  2B68               	goto	u1771
  4165     0B67  2B69               	goto	u1770
  4166     0B68                     u1771:
  4167     0B68  2B62               	goto	l120
  4168     0B69                     u1770:
  4169     0B69                     l1862:
  4170     0B69  0872               	movf	UART_Write@d,w
  4171     0B6A  1283               	bcf	3,5	;RP0=0, select bank0
  4172     0B6B  1303               	bcf	3,6	;RP1=0, select bank0
  4173     0B6C  0099               	movwf	25	;volatile
  4174     0B6D                     l122:
  4175     0B6D  0008               	return
  4176     0B6E                     __end_of_UART_Write:
  4177                           
  4178                           	psect	text12
  4179     0B6E                     __ptext12:	
  4180 ;; *************** function _UART_Read *****************
  4181 ;; Defined at:
  4182 ;;		line 52 in file "fuzzer.c"
  4183 ;; Parameters:    Size  Location     Type
  4184 ;;		None
  4185 ;; Auto vars:     Size  Location     Type
  4186 ;;		None
  4187 ;; Return value:  Size  Location     Type
  4188 ;;                  1    wreg      unsigned char 
  4189 ;; Registers used:
  4190 ;;		wreg
  4191 ;; Tracked objects:
  4192 ;;		On entry : 0/0
  4193 ;;		On exit  : 0/0
  4194 ;;		Unchanged: 0/0
  4195 ;; Data sizes:     COMMON   BANK0   BANK1   BANK3   BANK2
  4196 ;;      Params:         0       0       0       0       0
  4197 ;;      Locals:         0       0       0       0       0
  4198 ;;      Temps:          0       0       0       0       0
  4199 ;;      Totals:         0       0       0       0       0
  4200 ;;Total ram usage:        0 bytes
  4201 ;; Hardware stack levels used: 1
  4202 ;; Hardware stack levels required when called: 1
  4203 ;; This function calls:
  4204 ;;		Nothing
  4205 ;; This function is called by:
  4206 ;;		_main
  4207 ;; This function uses a non-reentrant model
  4208 ;;
  4209                           
  4210     0B6E                     _UART_Read:	
  4211                           ;psect for function _UART_Read
  4212                           
  4213     0B6E                     l1864:	
  4214                           ;incstack = 0
  4215                           ; Regs used in _UART_Read: [wreg]
  4216                           
  4217     0B6E  2B70               	goto	l131
  4218     0B6F                     l132:
  4219     0B6F  0064               	clrwdt	;# 
  4220     0B70                     l131:
  4221     0B70  1283               	bcf	3,5	;RP0=0, select bank0
  4222     0B71  1303               	bcf	3,6	;RP1=0, select bank0
  4223     0B72  1E8C               	btfss	12,5	;volatile
  4224     0B73  2B75               	goto	u1781
  4225     0B74  2B76               	goto	u1780
  4226     0B75                     u1781:
  4227     0B75  2B6F               	goto	l132
  4228     0B76                     u1780:
  4229     0B76                     l133:
  4230     0B76  1C98               	btfss	24,1	;volatile
  4231     0B77  2B79               	goto	u1791
  4232     0B78  2B7A               	goto	u1790
  4233     0B79                     u1791:
  4234     0B79  2B7C               	goto	l1868
  4235     0B7A                     u1790:
  4236     0B7A                     l1866:
  4237     0B7A  1218               	bcf	24,4	;volatile
  4238     0B7B  1618               	bsf	24,4	;volatile
  4239     0B7C                     l1868:
  4240     0B7C  081A               	movf	26,w	;volatile
  4241     0B7D                     l135:
  4242     0B7D  0008               	return
  4243     0B7E                     __end_of_UART_Read:
  4244                           
  4245                           	psect	text13
  4246     0C56                     __ptext13:	
  4247 ;; *************** function _UART_Init *****************
  4248 ;; Defined at:
  4249 ;;		line 49 in file "fuzzer.c"
  4250 ;; Parameters:    Size  Location     Type
  4251 ;;  baud            4    6[BANK0 ] long 
  4252 ;; Auto vars:     Size  Location     Type
  4253 ;;		None
  4254 ;; Return value:  Size  Location     Type
  4255 ;;                  1    wreg      void 
  4256 ;; Registers used:
  4257 ;;		wreg, status,2, status,0, pclath, cstack
  4258 ;; Tracked objects:
  4259 ;;		On entry : 0/0
  4260 ;;		On exit  : 0/0
  4261 ;;		Unchanged: 0/0
  4262 ;; Data sizes:     COMMON   BANK0   BANK1   BANK3   BANK2
  4263 ;;      Params:         0       4       0       0       0
  4264 ;;      Locals:         0       0       0       0       0
  4265 ;;      Temps:          0       4       0       0       0
  4266 ;;      Totals:         0       8       0       0       0
  4267 ;;Total ram usage:        8 bytes
  4268 ;; Hardware stack levels used: 1
  4269 ;; Hardware stack levels required when called: 2
  4270 ;; This function calls:
  4271 ;;		___aldiv
  4272 ;; This function is called by:
  4273 ;;		_main
  4274 ;; This function uses a non-reentrant model
  4275 ;;
  4276                           
  4277     0C56                     _UART_Init:	
  4278                           ;psect for function _UART_Init
  4279                           
  4280     0C56                     l1850:	
  4281                           ;incstack = 0
  4282                           ; Regs used in _UART_Init: [wreg+status,2+status,0+pclath+cstack]
  4283                           
  4284     0C56  1283               	bcf	3,5	;RP0=0, select bank0
  4285     0C57  1303               	bcf	3,6	;RP1=0, select bank0
  4286     0C58  0826               	movf	UART_Init@baud,w
  4287     0C59  00AA               	movwf	??_UART_Init
  4288     0C5A  0827               	movf	UART_Init@baud+1,w
  4289     0C5B  00AB               	movwf	??_UART_Init+1
  4290     0C5C  0828               	movf	UART_Init@baud+2,w
  4291     0C5D  00AC               	movwf	??_UART_Init+2
  4292     0C5E  0829               	movf	UART_Init@baud+3,w
  4293     0C5F  00AD               	movwf	??_UART_Init+3
  4294     0C60  3004               	movlw	4
  4295     0C61                     u1765:
  4296     0C61  1003               	clrc
  4297     0C62  0DAA               	rlf	??_UART_Init,f
  4298     0C63  0DAB               	rlf	??_UART_Init+1,f
  4299     0C64  0DAC               	rlf	??_UART_Init+2,f
  4300     0C65  0DAD               	rlf	??_UART_Init+3,f
  4301     0C66                     u1760:
  4302     0C66  3EFF               	addlw	-1
  4303     0C67  1D03               	skipz
  4304     0C68  2C61               	goto	u1765
  4305     0C69  082D               	movf	??_UART_Init+3,w
  4306     0C6A  00F5               	movwf	___aldiv@divisor+3
  4307     0C6B  082C               	movf	??_UART_Init+2,w
  4308     0C6C  00F4               	movwf	___aldiv@divisor+2
  4309     0C6D  082B               	movf	??_UART_Init+1,w
  4310     0C6E  00F3               	movwf	___aldiv@divisor+1
  4311     0C6F  082A               	movf	??_UART_Init,w
  4312     0C70  00F2               	movwf	___aldiv@divisor
  4313     0C71  3001               	movlw	1
  4314     0C72  00F9               	movwf	___aldiv@dividend+3
  4315     0C73  3031               	movlw	49
  4316     0C74  00F8               	movwf	___aldiv@dividend+2
  4317     0C75  302D               	movlw	45
  4318     0C76  00F7               	movwf	___aldiv@dividend+1
  4319     0C77  3000               	movlw	0
  4320     0C78  00F6               	movwf	___aldiv@dividend
  4321     0C79  120A  158A  26C7  120A  158A  	fcall	___aldiv
  4322     0C7E  0872               	movf	?___aldiv,w
  4323     0C7F  3EFF               	addlw	255
  4324     0C80  1683               	bsf	3,5	;RP0=1, select bank1
  4325     0C81  1303               	bcf	3,6	;RP1=0, select bank1
  4326     0C82  0099               	movwf	25	;volatile
  4327     0C83                     l1852:
  4328     0C83  1698               	bsf	24,5	;volatile
  4329     0C84                     l1854:
  4330     0C84  1518               	bsf	24,2	;volatile
  4331     0C85                     l1856:
  4332     0C85  1283               	bcf	3,5	;RP0=0, select bank0
  4333     0C86  1303               	bcf	3,6	;RP1=0, select bank0
  4334     0C87  1798               	bsf	24,7	;volatile
  4335     0C88                     l1858:
  4336     0C88  1618               	bsf	24,4	;volatile
  4337     0C89                     l116:
  4338     0C89  0008               	return
  4339     0C8A                     __end_of_UART_Init:
  4340                           
  4341                           	psect	text14
  4342     0EC7                     __ptext14:	
  4343 ;; *************** function ___aldiv *****************
  4344 ;; Defined at:
  4345 ;;		line 5 in file "C:\Program Files\Microchip\xc8\v3.10\pic\sources\c99\common\aldiv.c"
  4346 ;; Parameters:    Size  Location     Type
  4347 ;;  divisor         4    2[COMMON] long 
  4348 ;;  dividend        4    6[COMMON] long 
  4349 ;; Auto vars:     Size  Location     Type
  4350 ;;  quotient        4    2[BANK0 ] long 
  4351 ;;  sign            1    1[BANK0 ] unsigned char 
  4352 ;;  counter         1    0[BANK0 ] unsigned char 
  4353 ;; Return value:  Size  Location     Type
  4354 ;;                  4    2[COMMON] long 
  4355 ;; Registers used:
  4356 ;;		wreg, status,2, status,0
  4357 ;; Tracked objects:
  4358 ;;		On entry : 0/0
  4359 ;;		On exit  : 0/0
  4360 ;;		Unchanged: 0/0
  4361 ;; Data sizes:     COMMON   BANK0   BANK1   BANK3   BANK2
  4362 ;;      Params:         8       0       0       0       0
  4363 ;;      Locals:         0       6       0       0       0
  4364 ;;      Temps:          1       0       0       0       0
  4365 ;;      Totals:         9       6       0       0       0
  4366 ;;Total ram usage:       15 bytes
  4367 ;; Hardware stack levels used: 1
  4368 ;; Hardware stack levels required when called: 1
  4369 ;; This function calls:
  4370 ;;		Nothing
  4371 ;; This function is called by:
  4372 ;;		_UART_Init
  4373 ;; This function uses a non-reentrant model
  4374 ;;
  4375                           
  4376     0EC7                     ___aldiv:	
  4377                           ;psect for function ___aldiv
  4378                           
  4379     0EC7                     l1732:	
  4380                           ;incstack = 0
  4381                           ; Regs used in ___aldiv: [wreg+status,2+status,0]
  4382                           
  4383     0EC7  1283               	bcf	3,5	;RP0=0, select bank0
  4384     0EC8  1303               	bcf	3,6	;RP1=0, select bank0
  4385     0EC9  01A1               	clrf	___aldiv@sign
  4386     0ECA                     l1734:
  4387     0ECA  1FF5               	btfss	___aldiv@divisor+3,7
  4388     0ECB  2ECD               	goto	u1551
  4389     0ECC  2ECE               	goto	u1550
  4390     0ECD                     u1551:
  4391     0ECD  2EDB               	goto	l365
  4392     0ECE                     u1550:
  4393     0ECE                     l1736:
  4394     0ECE  09F2               	comf	___aldiv@divisor,f
  4395     0ECF  09F3               	comf	___aldiv@divisor+1,f
  4396     0ED0  09F4               	comf	___aldiv@divisor+2,f
  4397     0ED1  09F5               	comf	___aldiv@divisor+3,f
  4398     0ED2  0AF2               	incf	___aldiv@divisor,f
  4399     0ED3  1903               	skipnz
  4400     0ED4  0AF3               	incf	___aldiv@divisor+1,f
  4401     0ED5  1903               	skipnz
  4402     0ED6  0AF4               	incf	___aldiv@divisor+2,f
  4403     0ED7  1903               	skipnz
  4404     0ED8  0AF5               	incf	___aldiv@divisor+3,f
  4405     0ED9  3001               	movlw	1
  4406     0EDA  00A1               	movwf	___aldiv@sign
  4407     0EDB                     l365:
  4408     0EDB  1FF9               	btfss	___aldiv@dividend+3,7
  4409     0EDC  2EDE               	goto	u1561
  4410     0EDD  2EDF               	goto	u1560
  4411     0EDE                     u1561:
  4412     0EDE  2EEC               	goto	l1742
  4413     0EDF                     u1560:
  4414     0EDF                     l1738:
  4415     0EDF  09F6               	comf	___aldiv@dividend,f
  4416     0EE0  09F7               	comf	___aldiv@dividend+1,f
  4417     0EE1  09F8               	comf	___aldiv@dividend+2,f
  4418     0EE2  09F9               	comf	___aldiv@dividend+3,f
  4419     0EE3  0AF6               	incf	___aldiv@dividend,f
  4420     0EE4  1903               	skipnz
  4421     0EE5  0AF7               	incf	___aldiv@dividend+1,f
  4422     0EE6  1903               	skipnz
  4423     0EE7  0AF8               	incf	___aldiv@dividend+2,f
  4424     0EE8  1903               	skipnz
  4425     0EE9  0AF9               	incf	___aldiv@dividend+3,f
  4426     0EEA                     l1740:
  4427     0EEA  3001               	movlw	1
  4428     0EEB  06A1               	xorwf	___aldiv@sign,f
  4429     0EEC                     l1742:
  4430     0EEC  3000               	movlw	0
  4431     0EED  00A5               	movwf	___aldiv@quotient+3
  4432     0EEE  3000               	movlw	0
  4433     0EEF  00A4               	movwf	___aldiv@quotient+2
  4434     0EF0  3000               	movlw	0
  4435     0EF1  00A3               	movwf	___aldiv@quotient+1
  4436     0EF2  3000               	movlw	0
  4437     0EF3  00A2               	movwf	___aldiv@quotient
  4438     0EF4                     l1744:
  4439     0EF4  0875               	movf	___aldiv@divisor+3,w
  4440     0EF5  0474               	iorwf	___aldiv@divisor+2,w
  4441     0EF6  0473               	iorwf	___aldiv@divisor+1,w
  4442     0EF7  0472               	iorwf	___aldiv@divisor,w
  4443     0EF8  1903               	skipnz
  4444     0EF9  2EFB               	goto	u1571
  4445     0EFA  2EFC               	goto	u1570
  4446     0EFB                     u1571:
  4447     0EFB  2F47               	goto	l1764
  4448     0EFC                     u1570:
  4449     0EFC                     l1746:
  4450     0EFC  3001               	movlw	1
  4451     0EFD  00A0               	movwf	___aldiv@counter
  4452     0EFE  2F0A               	goto	l1750
  4453     0EFF                     l1748:
  4454     0EFF  3001               	movlw	1
  4455     0F00  00FA               	movwf	??___aldiv
  4456     0F01                     u1585:
  4457     0F01  1003               	clrc
  4458     0F02  0DF2               	rlf	___aldiv@divisor,f
  4459     0F03  0DF3               	rlf	___aldiv@divisor+1,f
  4460     0F04  0DF4               	rlf	___aldiv@divisor+2,f
  4461     0F05  0DF5               	rlf	___aldiv@divisor+3,f
  4462     0F06  0BFA               	decfsz	??___aldiv,f
  4463     0F07  2F01               	goto	u1585
  4464     0F08  3001               	movlw	1
  4465     0F09  07A0               	addwf	___aldiv@counter,f
  4466     0F0A                     l1750:
  4467     0F0A  1FF5               	btfss	___aldiv@divisor+3,7
  4468     0F0B  2F0D               	goto	u1591
  4469     0F0C  2F0E               	goto	u1590
  4470     0F0D                     u1591:
  4471     0F0D  2EFF               	goto	l1748
  4472     0F0E                     u1590:
  4473     0F0E                     l1752:
  4474     0F0E  3001               	movlw	1
  4475     0F0F  00FA               	movwf	??___aldiv
  4476     0F10                     u1605:
  4477     0F10  1003               	clrc
  4478     0F11  0DA2               	rlf	___aldiv@quotient,f
  4479     0F12  0DA3               	rlf	___aldiv@quotient+1,f
  4480     0F13  0DA4               	rlf	___aldiv@quotient+2,f
  4481     0F14  0DA5               	rlf	___aldiv@quotient+3,f
  4482     0F15  0BFA               	decfsz	??___aldiv,f
  4483     0F16  2F10               	goto	u1605
  4484     0F17                     l1754:
  4485     0F17  0875               	movf	___aldiv@divisor+3,w
  4486     0F18  0279               	subwf	___aldiv@dividend+3,w
  4487     0F19  1D03               	skipz
  4488     0F1A  2F25               	goto	u1615
  4489     0F1B  0874               	movf	___aldiv@divisor+2,w
  4490     0F1C  0278               	subwf	___aldiv@dividend+2,w
  4491     0F1D  1D03               	skipz
  4492     0F1E  2F25               	goto	u1615
  4493     0F1F  0873               	movf	___aldiv@divisor+1,w
  4494     0F20  0277               	subwf	___aldiv@dividend+1,w
  4495     0F21  1D03               	skipz
  4496     0F22  2F25               	goto	u1615
  4497     0F23  0872               	movf	___aldiv@divisor,w
  4498     0F24  0276               	subwf	___aldiv@dividend,w
  4499     0F25                     u1615:
  4500     0F25  1C03               	skipc
  4501     0F26  2F28               	goto	u1611
  4502     0F27  2F29               	goto	u1610
  4503     0F28                     u1611:
  4504     0F28  2F38               	goto	l1760
  4505     0F29                     u1610:
  4506     0F29                     l1756:
  4507     0F29  0872               	movf	___aldiv@divisor,w
  4508     0F2A  02F6               	subwf	___aldiv@dividend,f
  4509     0F2B  0873               	movf	___aldiv@divisor+1,w
  4510     0F2C  1C03               	skipc
  4511     0F2D  0F73               	incfsz	___aldiv@divisor+1,w
  4512     0F2E  02F7               	subwf	___aldiv@dividend+1,f
  4513     0F2F  0874               	movf	___aldiv@divisor+2,w
  4514     0F30  1C03               	skipc
  4515     0F31  0F74               	incfsz	___aldiv@divisor+2,w
  4516     0F32  02F8               	subwf	___aldiv@dividend+2,f
  4517     0F33  0875               	movf	___aldiv@divisor+3,w
  4518     0F34  1C03               	skipc
  4519     0F35  0F75               	incfsz	___aldiv@divisor+3,w
  4520     0F36  02F9               	subwf	___aldiv@dividend+3,f
  4521     0F37                     l1758:
  4522     0F37  1422               	bsf	___aldiv@quotient,0
  4523     0F38                     l1760:
  4524     0F38  3001               	movlw	1
  4525     0F39                     u1625:
  4526     0F39  1003               	clrc
  4527     0F3A  0CF5               	rrf	___aldiv@divisor+3,f
  4528     0F3B  0CF4               	rrf	___aldiv@divisor+2,f
  4529     0F3C  0CF3               	rrf	___aldiv@divisor+1,f
  4530     0F3D  0CF2               	rrf	___aldiv@divisor,f
  4531     0F3E  3EFF               	addlw	-1
  4532     0F3F  1D03               	skipz
  4533     0F40  2F39               	goto	u1625
  4534     0F41                     l1762:
  4535     0F41  3001               	movlw	1
  4536     0F42  02A0               	subwf	___aldiv@counter,f
  4537     0F43  1D03               	btfss	3,2
  4538     0F44  2F46               	goto	u1631
  4539     0F45  2F47               	goto	u1630
  4540     0F46                     u1631:
  4541     0F46  2F0E               	goto	l1752
  4542     0F47                     u1630:
  4543     0F47                     l1764:
  4544     0F47  0821               	movf	___aldiv@sign,w
  4545     0F48  1903               	btfsc	3,2
  4546     0F49  2F4B               	goto	u1641
  4547     0F4A  2F4C               	goto	u1640
  4548     0F4B                     u1641:
  4549     0F4B  2F57               	goto	l1768
  4550     0F4C                     u1640:
  4551     0F4C                     l1766:
  4552     0F4C  09A2               	comf	___aldiv@quotient,f
  4553     0F4D  09A3               	comf	___aldiv@quotient+1,f
  4554     0F4E  09A4               	comf	___aldiv@quotient+2,f
  4555     0F4F  09A5               	comf	___aldiv@quotient+3,f
  4556     0F50  0AA2               	incf	___aldiv@quotient,f
  4557     0F51  1903               	skipnz
  4558     0F52  0AA3               	incf	___aldiv@quotient+1,f
  4559     0F53  1903               	skipnz
  4560     0F54  0AA4               	incf	___aldiv@quotient+2,f
  4561     0F55  1903               	skipnz
  4562     0F56  0AA5               	incf	___aldiv@quotient+3,f
  4563     0F57                     l1768:
  4564     0F57  0825               	movf	___aldiv@quotient+3,w
  4565     0F58  00F5               	movwf	?___aldiv+3
  4566     0F59  0824               	movf	___aldiv@quotient+2,w
  4567     0F5A  00F4               	movwf	?___aldiv+2
  4568     0F5B  0823               	movf	___aldiv@quotient+1,w
  4569     0F5C  00F3               	movwf	?___aldiv+1
  4570     0F5D  0822               	movf	___aldiv@quotient,w
  4571     0F5E  00F2               	movwf	?___aldiv
  4572     0F5F                     l375:
  4573     0F5F  0008               	return
  4574     0F60                     __end_of___aldiv:
  4575                           
  4576                           	psect	text15
  4577     0B3B                     __ptext15:	
  4578 ;; *************** function _UART_Data_Ready *****************
  4579 ;; Defined at:
  4580 ;;		line 53 in file "fuzzer.c"
  4581 ;; Parameters:    Size  Location     Type
  4582 ;;		None
  4583 ;; Auto vars:     Size  Location     Type
  4584 ;;		None
  4585 ;; Return value:  Size  Location     Type
  4586 ;;                  1    wreg      unsigned char 
  4587 ;; Registers used:
  4588 ;;		wreg, status,2, status,0
  4589 ;; Tracked objects:
  4590 ;;		On entry : 0/0
  4591 ;;		On exit  : 0/0
  4592 ;;		Unchanged: 0/0
  4593 ;; Data sizes:     COMMON   BANK0   BANK1   BANK3   BANK2
  4594 ;;      Params:         0       0       0       0       0
  4595 ;;      Locals:         0       0       0       0       0
  4596 ;;      Temps:          1       0       0       0       0
  4597 ;;      Totals:         1       0       0       0       0
  4598 ;;Total ram usage:        1 bytes
  4599 ;; Hardware stack levels used: 1
  4600 ;; Hardware stack levels required when called: 1
  4601 ;; This function calls:
  4602 ;;		Nothing
  4603 ;; This function is called by:
  4604 ;;		_main
  4605 ;; This function uses a non-reentrant model
  4606 ;;
  4607                           
  4608     0B3B                     _UART_Data_Ready:	
  4609                           ;psect for function _UART_Data_Ready
  4610                           
  4611     0B3B                     l1872:	
  4612                           ;incstack = 0
  4613                           ; Regs used in _UART_Data_Ready: [wreg+status,2+status,0]
  4614                           
  4615     0B3B  1283               	bcf	3,5	;RP0=0, select bank0
  4616     0B3C  1303               	bcf	3,6	;RP1=0, select bank0
  4617     0B3D  0E0C               	swapf	12,w	;volatile
  4618     0B3E  00F2               	movwf	??_UART_Data_Ready
  4619     0B3F  0C72               	rrf	??_UART_Data_Ready,w
  4620     0B40  3901               	andlw	1
  4621     0B41                     l138:
  4622     0B41  0008               	return
  4623     0B42                     __end_of_UART_Data_Ready:
  4624                           
  4625                           	psect	text16
  4626     07BA                     __ptext16:	
  4627 ;; *************** function _Lcd_Write_String *****************
  4628 ;; Defined at:
  4629 ;;		line 46 in file "fuzzer.c"
  4630 ;; Parameters:    Size  Location     Type
  4631 ;;  a               2    7[COMMON] PTR unsigned char 
  4632 ;;		 -> STR_33(24), STR_32(13), STR_31(13), STR_30(23), 
  4633 ;;		 -> main@s(20), STR_28(17), STR_27(21), STR_26(16), 
  4634 ;;		 -> STR_25(17), STR_24(17), STR_23(17), STR_22(21), 
  4635 ;;		 -> STR_21(17), STR_20(17), STR_19(17), STR_18(17), 
  4636 ;;		 -> STR_17(13), STR_16(15), STR_15(17), STR_14(16), 
  4637 ;;		 -> STR_13(16), STR_12(16), STR_11(16), STR_10(17), 
  4638 ;;		 -> STR_9(21), STR_8(21), STR_7(21), STR_6(16), 
  4639 ;;		 -> STR_5(21), STR_4(16), STR_3(16), STR_2(21), 
  4640 ;;		 -> STR_1(21), 
  4641 ;; Auto vars:     Size  Location     Type
  4642 ;;  i               2    0[BANK0 ] int 
  4643 ;; Return value:  Size  Location     Type
  4644 ;;                  1    wreg      void 
  4645 ;; Registers used:
  4646 ;;		wreg, fsr0l, fsr0h, status,2, status,0, pclath, btemp1, cstack
  4647 ;; Tracked objects:
  4648 ;;		On entry : 0/0
  4649 ;;		On exit  : 0/0
  4650 ;;		Unchanged: 0/0
  4651 ;; Data sizes:     COMMON   BANK0   BANK1   BANK3   BANK2
  4652 ;;      Params:         2       0       0       0       0
  4653 ;;      Locals:         0       2       0       0       0
  4654 ;;      Temps:          3       0       0       0       0
  4655 ;;      Totals:         5       2       0       0       0
  4656 ;;Total ram usage:        7 bytes
  4657 ;; Hardware stack levels used: 1
  4658 ;; Hardware stack levels required when called: 2
  4659 ;; This function calls:
  4660 ;;		_Lcd_Write_Char
  4661 ;; This function is called by:
  4662 ;;		_main
  4663 ;; This function uses a non-reentrant model
  4664 ;;
  4665                           
  4666     07BA                     _Lcd_Write_String:	
  4667                           ;psect for function _Lcd_Write_String
  4668                           
  4669     07BA                     l1832:	
  4670                           ;incstack = 0
  4671                           ; Regs used in _Lcd_Write_String: [wreg-fsr0h+status,2+status,0+pclath+btemp1+cstack]
  4672                           
  4673     07BA  1283               	bcf	3,5	;RP0=0, select bank0
  4674     07BB  1303               	bcf	3,6	;RP1=0, select bank0
  4675     07BC  01A0               	clrf	Lcd_Write_String@i
  4676     07BD  01A1               	clrf	Lcd_Write_String@i+1
  4677     07BE  2FE3               	goto	l1838
  4678     07BF                     l1834:
  4679     07BF  0820               	movf	Lcd_Write_String@i,w
  4680     07C0  0777               	addwf	Lcd_Write_String@a,w
  4681     07C1  00FA               	movwf	??_Lcd_Write_String+1
  4682     07C2  0878               	movf	Lcd_Write_String@a+1,w
  4683     07C3  00F9               	movwf	??_Lcd_Write_String
  4684     07C4  1803               	skipnc
  4685     07C5  0AF9               	incf	??_Lcd_Write_String,f
  4686     07C6  1FA0               	btfss	Lcd_Write_String@i,7
  4687     07C7  2FC9               	goto	u1730
  4688     07C8  03F9               	decf	??_Lcd_Write_String,f
  4689     07C9                     u1730:
  4690     07C9  0879               	movf	??_Lcd_Write_String,w
  4691     07CA  00FB               	movwf	??_Lcd_Write_String+2
  4692     07CB  087B               	movf	??_Lcd_Write_String+2,w
  4693     07CC  1283               	bcf	3,5	;RP0=0, select bank0
  4694     07CD  1303               	bcf	3,6	;RP1=0, select bank0
  4695     07CE  00FF               	movwf	btemp1
  4696     07CF  087A               	movf	??_Lcd_Write_String+1,w
  4697     07D0  0084               	movwf	4
  4698     07D1  120A  158A  2000  120A  118A  	fcall	stringtab
  4699     07D6  120A  158A  248A  120A  118A  	fcall	_Lcd_Write_Char
  4700     07DB                     l1836:
  4701     07DB  3001               	movlw	1
  4702     07DC  1283               	bcf	3,5	;RP0=0, select bank0
  4703     07DD  1303               	bcf	3,6	;RP1=0, select bank0
  4704     07DE  07A0               	addwf	Lcd_Write_String@i,f
  4705     07DF  1803               	skipnc
  4706     07E0  0AA1               	incf	Lcd_Write_String@i+1,f
  4707     07E1  3000               	movlw	0
  4708     07E2  07A1               	addwf	Lcd_Write_String@i+1,f
  4709     07E3                     l1838:
  4710     07E3  0820               	movf	Lcd_Write_String@i,w
  4711     07E4  0777               	addwf	Lcd_Write_String@a,w
  4712     07E5  00FA               	movwf	??_Lcd_Write_String+1
  4713     07E6  0878               	movf	Lcd_Write_String@a+1,w
  4714     07E7  00F9               	movwf	??_Lcd_Write_String
  4715     07E8  1803               	skipnc
  4716     07E9  0AF9               	incf	??_Lcd_Write_String,f
  4717     07EA  1FA0               	btfss	Lcd_Write_String@i,7
  4718     07EB  2FED               	goto	u1740
  4719     07EC  03F9               	decf	??_Lcd_Write_String,f
  4720     07ED                     u1740:
  4721     07ED  0879               	movf	??_Lcd_Write_String,w
  4722     07EE  00FB               	movwf	??_Lcd_Write_String+2
  4723     07EF  087B               	movf	??_Lcd_Write_String+2,w
  4724     07F0  1283               	bcf	3,5	;RP0=0, select bank0
  4725     07F1  1303               	bcf	3,6	;RP1=0, select bank0
  4726     07F2  00FF               	movwf	btemp1
  4727     07F3  087A               	movf	??_Lcd_Write_String+1,w
  4728     07F4  0084               	movwf	4
  4729     07F5  120A  158A  2000  120A  118A  	fcall	stringtab
  4730     07FA  3A00               	xorlw	0
  4731     07FB  1D03               	skipz
  4732     07FC  2FFE               	goto	u1751
  4733     07FD  2FFF               	goto	u1750
  4734     07FE                     u1751:
  4735     07FE  2FBF               	goto	l1834
  4736     07FF                     u1750:
  4737     07FF                     l110:
  4738     07FF  0008               	return
  4739     0800                     __end_of_Lcd_Write_String:
  4740                           
  4741                           	psect	text17
  4742     0C8A                     __ptext17:	
  4743 ;; *************** function _Lcd_Write_Char *****************
  4744 ;; Defined at:
  4745 ;;		line 45 in file "fuzzer.c"
  4746 ;; Parameters:    Size  Location     Type
  4747 ;;  a               1    wreg     unsigned char 
  4748 ;; Auto vars:     Size  Location     Type
  4749 ;;  a               1    6[COMMON] unsigned char 
  4750 ;;  y               1    5[COMMON] unsigned char 
  4751 ;;  t               1    4[COMMON] unsigned char 
  4752 ;; Return value:  Size  Location     Type
  4753 ;;                  1    wreg      void 
  4754 ;; Registers used:
  4755 ;;		wreg, status,2, status,0, pclath, cstack
  4756 ;; Tracked objects:
  4757 ;;		On entry : 0/0
  4758 ;;		On exit  : 0/0
  4759 ;;		Unchanged: 0/0
  4760 ;; Data sizes:     COMMON   BANK0   BANK1   BANK3   BANK2
  4761 ;;      Params:         0       0       0       0       0
  4762 ;;      Locals:         3       0       0       0       0
  4763 ;;      Temps:          1       0       0       0       0
  4764 ;;      Totals:         4       0       0       0       0
  4765 ;;Total ram usage:        4 bytes
  4766 ;; Hardware stack levels used: 1
  4767 ;; Hardware stack levels required when called: 1
  4768 ;; This function calls:
  4769 ;;		_Lcd_Port
  4770 ;; This function is called by:
  4771 ;;		_Lcd_Write_String
  4772 ;;		_main
  4773 ;; This function uses a non-reentrant model
  4774 ;;
  4775                           
  4776     0C8A                     _Lcd_Write_Char:	
  4777                           ;psect for function _Lcd_Write_Char
  4778                           
  4779                           
  4780                           ;incstack = 0
  4781                           ; Regs used in _Lcd_Write_Char: [wreg+status,2+status,0+pclath+cstack]
  4782                           ;Lcd_Write_Char@a stored from wreg
  4783     0C8A  00F6               	movwf	Lcd_Write_Char@a
  4784     0C8B                     l1708:
  4785     0C8B  0876               	movf	Lcd_Write_Char@a,w
  4786     0C8C  00F4               	movwf	Lcd_Write_Char@t
  4787     0C8D                     l1710:
  4788     0C8D  300F               	movlw	15
  4789     0C8E  05F4               	andwf	Lcd_Write_Char@t,f
  4790     0C8F                     l1712:
  4791     0C8F  0876               	movf	Lcd_Write_Char@a,w
  4792     0C90  00F5               	movwf	Lcd_Write_Char@y
  4793     0C91  30F0               	movlw	240
  4794     0C92  05F5               	andwf	Lcd_Write_Char@y,f
  4795     0C93                     l1714:
  4796     0C93  1283               	bcf	3,5	;RP0=0, select bank0
  4797     0C94  1303               	bcf	3,6	;RP1=0, select bank0
  4798     0C95  1508               	bsf	8,2	;volatile
  4799     0C96                     l1716:
  4800     0C96  0875               	movf	Lcd_Write_Char@y,w
  4801     0C97  00F3               	movwf	??_Lcd_Write_Char
  4802     0C98  3004               	movlw	4
  4803     0C99                     u1545:
  4804     0C99  1003               	clrc
  4805     0C9A  0CF3               	rrf	??_Lcd_Write_Char,f
  4806     0C9B  3EFF               	addlw	-1
  4807     0C9C  1D03               	skipz
  4808     0C9D  2C99               	goto	u1545
  4809     0C9E  0873               	movf	??_Lcd_Write_Char,w
  4810     0C9F  120A  118A  24DE  120A  158A  	fcall	_Lcd_Port
  4811     0CA4                     l1718:
  4812     0CA4  1283               	bcf	3,5	;RP0=0, select bank0
  4813     0CA5  1303               	bcf	3,6	;RP1=0, select bank0
  4814     0CA6  1588               	bsf	8,3	;volatile
  4815     0CA7                     l1720:
  4816     0CA7  3042               	movlw	66
  4817     0CA8  00F3               	movwf	??_Lcd_Write_Char
  4818     0CA9                     u2357:
  4819     0CA9  0BF3               	decfsz	??_Lcd_Write_Char,f
  4820     0CAA  2CA9               	goto	u2357
  4821     0CAB  0000               	nop
  4822     0CAC                     l1722:
  4823     0CAC  1283               	bcf	3,5	;RP0=0, select bank0
  4824     0CAD  1303               	bcf	3,6	;RP1=0, select bank0
  4825     0CAE  1188               	bcf	8,3	;volatile
  4826     0CAF                     l1724:
  4827     0CAF  0874               	movf	Lcd_Write_Char@t,w
  4828     0CB0  120A  118A  24DE  120A  158A  	fcall	_Lcd_Port
  4829     0CB5                     l1726:
  4830     0CB5  1283               	bcf	3,5	;RP0=0, select bank0
  4831     0CB6  1303               	bcf	3,6	;RP1=0, select bank0
  4832     0CB7  1588               	bsf	8,3	;volatile
  4833     0CB8                     l1728:
  4834     0CB8  3042               	movlw	66
  4835     0CB9  00F3               	movwf	??_Lcd_Write_Char
  4836     0CBA                     u2367:
  4837     0CBA  0BF3               	decfsz	??_Lcd_Write_Char,f
  4838     0CBB  2CBA               	goto	u2367
  4839     0CBC  0000               	nop
  4840     0CBD                     l1730:
  4841     0CBD  1283               	bcf	3,5	;RP0=0, select bank0
  4842     0CBE  1303               	bcf	3,6	;RP1=0, select bank0
  4843     0CBF  1188               	bcf	8,3	;volatile
  4844     0CC0                     l104:
  4845     0CC0  0008               	return
  4846     0CC1                     __end_of_Lcd_Write_Char:
  4847                           
  4848                           	psect	text18
  4849     0CC1                     __ptext18:	
  4850 ;; *************** function _Lcd_Set_Cursor *****************
  4851 ;; Defined at:
  4852 ;;		line 44 in file "fuzzer.c"
  4853 ;; Parameters:    Size  Location     Type
  4854 ;;  a               1    wreg     unsigned char 
  4855 ;;  b               1    6[COMMON] unsigned char 
  4856 ;; Auto vars:     Size  Location     Type
  4857 ;;  a               1   10[COMMON] unsigned char 
  4858 ;;  t               1   11[COMMON] unsigned char 
  4859 ;;  y               1    9[COMMON] unsigned char 
  4860 ;;  z               1    8[COMMON] unsigned char 
  4861 ;; Return value:  Size  Location     Type
  4862 ;;                  1    wreg      void 
  4863 ;; Registers used:
  4864 ;;		wreg, status,2, status,0, pclath, cstack
  4865 ;; Tracked objects:
  4866 ;;		On entry : 0/0
  4867 ;;		On exit  : 0/0
  4868 ;;		Unchanged: 0/0
  4869 ;; Data sizes:     COMMON   BANK0   BANK1   BANK3   BANK2
  4870 ;;      Params:         1       0       0       0       0
  4871 ;;      Locals:         4       0       0       0       0
  4872 ;;      Temps:          1       0       0       0       0
  4873 ;;      Totals:         6       0       0       0       0
  4874 ;;Total ram usage:        6 bytes
  4875 ;; Hardware stack levels used: 1
  4876 ;; Hardware stack levels required when called: 2
  4877 ;; This function calls:
  4878 ;;		_Lcd_Cmd
  4879 ;; This function is called by:
  4880 ;;		_main
  4881 ;; This function uses a non-reentrant model
  4882 ;;
  4883                           
  4884     0CC1                     _Lcd_Set_Cursor:	
  4885                           ;psect for function _Lcd_Set_Cursor
  4886                           
  4887                           
  4888                           ;incstack = 0
  4889                           ; Regs used in _Lcd_Set_Cursor: [wreg+status,2+status,0+pclath+cstack]
  4890                           ;Lcd_Set_Cursor@a stored from wreg
  4891     0CC1  00FA               	movwf	Lcd_Set_Cursor@a
  4892     0CC2                     l1810:
  4893     0CC2  037A               	decf	Lcd_Set_Cursor@a,w
  4894     0CC3  1D03               	btfss	3,2
  4895     0CC4  2CC6               	goto	u1691
  4896     0CC5  2CC7               	goto	u1690
  4897     0CC6                     u1691:
  4898     0CC6  2CCB               	goto	l1814
  4899     0CC7                     u1690:
  4900     0CC7                     l1812:
  4901     0CC7  0876               	movf	Lcd_Set_Cursor@b,w
  4902     0CC8  3E7F               	addlw	127
  4903     0CC9  00FB               	movwf	Lcd_Set_Cursor@t
  4904     0CCA  2CE2               	goto	l96
  4905     0CCB                     l1814:
  4906     0CCB  3002               	movlw	2
  4907     0CCC  067A               	xorwf	Lcd_Set_Cursor@a,w
  4908     0CCD  1D03               	btfss	3,2
  4909     0CCE  2CD0               	goto	u1701
  4910     0CCF  2CD1               	goto	u1700
  4911     0CD0                     u1701:
  4912     0CD0  2CD5               	goto	l1818
  4913     0CD1                     u1700:
  4914     0CD1                     l1816:
  4915     0CD1  0876               	movf	Lcd_Set_Cursor@b,w
  4916     0CD2  3EBF               	addlw	191
  4917     0CD3  00FB               	movwf	Lcd_Set_Cursor@t
  4918     0CD4  2CE2               	goto	l96
  4919     0CD5                     l1818:
  4920     0CD5  3003               	movlw	3
  4921     0CD6  067A               	xorwf	Lcd_Set_Cursor@a,w
  4922     0CD7  1D03               	btfss	3,2
  4923     0CD8  2CDA               	goto	u1711
  4924     0CD9  2CDB               	goto	u1710
  4925     0CDA                     u1711:
  4926     0CDA  2CDF               	goto	l1822
  4927     0CDB                     u1710:
  4928     0CDB                     l1820:
  4929     0CDB  0876               	movf	Lcd_Set_Cursor@b,w
  4930     0CDC  3E93               	addlw	147
  4931     0CDD  00FB               	movwf	Lcd_Set_Cursor@t
  4932     0CDE  2CE2               	goto	l96
  4933     0CDF                     l1822:
  4934     0CDF  0876               	movf	Lcd_Set_Cursor@b,w
  4935     0CE0  3ED3               	addlw	211
  4936     0CE1  00FB               	movwf	Lcd_Set_Cursor@t
  4937     0CE2                     l96:
  4938     0CE2  087B               	movf	Lcd_Set_Cursor@t,w
  4939     0CE3  00F7               	movwf	??_Lcd_Set_Cursor
  4940     0CE4  3004               	movlw	4
  4941     0CE5                     u1725:
  4942     0CE5  1003               	clrc
  4943     0CE6  0CF7               	rrf	??_Lcd_Set_Cursor,f
  4944     0CE7  3EFF               	addlw	-1
  4945     0CE8  1D03               	skipz
  4946     0CE9  2CE5               	goto	u1725
  4947     0CEA  0877               	movf	??_Lcd_Set_Cursor,w
  4948     0CEB  00F8               	movwf	Lcd_Set_Cursor@z
  4949     0CEC                     l1824:
  4950     0CEC  087B               	movf	Lcd_Set_Cursor@t,w
  4951     0CED  00F9               	movwf	Lcd_Set_Cursor@y
  4952     0CEE                     l1826:
  4953     0CEE  300F               	movlw	15
  4954     0CEF  05F9               	andwf	Lcd_Set_Cursor@y,f
  4955     0CF0                     l1828:
  4956     0CF0  0878               	movf	Lcd_Set_Cursor@z,w
  4957     0CF1  120A  158A  23CC  120A  158A  	fcall	_Lcd_Cmd
  4958     0CF6                     l1830:
  4959     0CF6  0879               	movf	Lcd_Set_Cursor@y,w
  4960     0CF7  120A  158A  23CC  120A  158A  	fcall	_Lcd_Cmd
  4961     0CFC                     l101:
  4962     0CFC  0008               	return
  4963     0CFD                     __end_of_Lcd_Set_Cursor:
  4964                           
  4965                           	psect	text19
  4966     0DA0                     __ptext19:	
  4967 ;; *************** function _Lcd_Init *****************
  4968 ;; Defined at:
  4969 ;;		line 47 in file "fuzzer.c"
  4970 ;; Parameters:    Size  Location     Type
  4971 ;;		None
  4972 ;; Auto vars:     Size  Location     Type
  4973 ;;		None
  4974 ;; Return value:  Size  Location     Type
  4975 ;;                  1    wreg      void 
  4976 ;; Registers used:
  4977 ;;		wreg, status,2, status,0, pclath, cstack
  4978 ;; Tracked objects:
  4979 ;;		On entry : 0/0
  4980 ;;		On exit  : 0/0
  4981 ;;		Unchanged: 0/0
  4982 ;; Data sizes:     COMMON   BANK0   BANK1   BANK3   BANK2
  4983 ;;      Params:         0       0       0       0       0
  4984 ;;      Locals:         0       0       0       0       0
  4985 ;;      Temps:          2       0       0       0       0
  4986 ;;      Totals:         2       0       0       0       0
  4987 ;;Total ram usage:        2 bytes
  4988 ;; Hardware stack levels used: 1
  4989 ;; Hardware stack levels required when called: 2
  4990 ;; This function calls:
  4991 ;;		_Lcd_Cmd
  4992 ;;		_Lcd_Port
  4993 ;; This function is called by:
  4994 ;;		_main
  4995 ;; This function uses a non-reentrant model
  4996 ;;
  4997                           
  4998     0DA0                     _Lcd_Init:	
  4999                           ;psect for function _Lcd_Init
  5000                           
  5001     0DA0                     l1840:	
  5002                           ;incstack = 0
  5003                           ; Regs used in _Lcd_Init: [wreg+status,2+status,0+pclath+cstack]
  5004                           
  5005     0DA0  3000               	movlw	0
  5006     0DA1  120A  118A  24DE  120A  158A  	fcall	_Lcd_Port
  5007     0DA6                     l1842:
  5008     0DA6  3082               	movlw	130
  5009     0DA7  00F7               	movwf	??_Lcd_Init+1
  5010     0DA8  30DD               	movlw	221
  5011     0DA9  00F6               	movwf	??_Lcd_Init
  5012     0DAA                     u2377:
  5013     0DAA  0BF6               	decfsz	??_Lcd_Init,f
  5014     0DAB  2DAA               	goto	u2377
  5015     0DAC  0BF7               	decfsz	??_Lcd_Init+1,f
  5016     0DAD  2DAA               	goto	u2377
  5017     0DAE  2DAF               	nop2
  5018     0DAF                     l1844:
  5019     0DAF  3003               	movlw	3
  5020     0DB0  120A  158A  23CC  120A  158A  	fcall	_Lcd_Cmd
  5021     0DB5  3021               	movlw	33
  5022     0DB6  00F7               	movwf	??_Lcd_Init+1
  5023     0DB7  3076               	movlw	118
  5024     0DB8  00F6               	movwf	??_Lcd_Init
  5025     0DB9                     u2387:
  5026     0DB9  0BF6               	decfsz	??_Lcd_Init,f
  5027     0DBA  2DB9               	goto	u2387
  5028     0DBB  0BF7               	decfsz	??_Lcd_Init+1,f
  5029     0DBC  2DB9               	goto	u2387
  5030     0DBD  0000               	nop
  5031     0DBE                     l1846:
  5032     0DBE  3003               	movlw	3
  5033     0DBF  120A  158A  23CC  120A  158A  	fcall	_Lcd_Cmd
  5034     0DC4                     l1848:
  5035     0DC4  3048               	movlw	72
  5036     0DC5  00F7               	movwf	??_Lcd_Init+1
  5037     0DC6  306C               	movlw	108
  5038     0DC7  00F6               	movwf	??_Lcd_Init
  5039     0DC8                     u2397:
  5040     0DC8  0BF6               	decfsz	??_Lcd_Init,f
  5041     0DC9  2DC8               	goto	u2397
  5042     0DCA  0BF7               	decfsz	??_Lcd_Init+1,f
  5043     0DCB  2DC8               	goto	u2397
  5044     0DCC  0000               	nop
  5045     0DCD  3003               	movlw	3
  5046     0DCE  120A  158A  23CC  120A  158A  	fcall	_Lcd_Cmd
  5047     0DD3  3002               	movlw	2
  5048     0DD4  120A  158A  23CC  120A  158A  	fcall	_Lcd_Cmd
  5049     0DD9  3002               	movlw	2
  5050     0DDA  120A  158A  23CC  120A  158A  	fcall	_Lcd_Cmd
  5051     0DDF  3008               	movlw	8
  5052     0DE0  120A  158A  23CC  120A  158A  	fcall	_Lcd_Cmd
  5053     0DE5  3000               	movlw	0
  5054     0DE6  120A  158A  23CC  120A  158A  	fcall	_Lcd_Cmd
  5055     0DEB  300C               	movlw	12
  5056     0DEC  120A  158A  23CC  120A  158A  	fcall	_Lcd_Cmd
  5057     0DF1  3000               	movlw	0
  5058     0DF2  120A  158A  23CC  120A  158A  	fcall	_Lcd_Cmd
  5059     0DF7  3006               	movlw	6
  5060     0DF8  120A  158A  23CC  120A  158A  	fcall	_Lcd_Cmd
  5061     0DFD                     l113:
  5062     0DFD  0008               	return
  5063     0DFE                     __end_of_Lcd_Init:
  5064                           
  5065                           	psect	text20
  5066     0B53                     __ptext20:	
  5067 ;; *************** function _Lcd_Clear *****************
  5068 ;; Defined at:
  5069 ;;		line 43 in file "fuzzer.c"
  5070 ;; Parameters:    Size  Location     Type
  5071 ;;		None
  5072 ;; Auto vars:     Size  Location     Type
  5073 ;;		None
  5074 ;; Return value:  Size  Location     Type
  5075 ;;                  1    wreg      void 
  5076 ;; Registers used:
  5077 ;;		wreg, status,2, status,0, pclath, cstack
  5078 ;; Tracked objects:
  5079 ;;		On entry : 0/0
  5080 ;;		On exit  : 0/0
  5081 ;;		Unchanged: 0/0
  5082 ;; Data sizes:     COMMON   BANK0   BANK1   BANK3   BANK2
  5083 ;;      Params:         0       0       0       0       0
  5084 ;;      Locals:         0       0       0       0       0
  5085 ;;      Temps:          0       0       0       0       0
  5086 ;;      Totals:         0       0       0       0       0
  5087 ;;Total ram usage:        0 bytes
  5088 ;; Hardware stack levels used: 1
  5089 ;; Hardware stack levels required when called: 3
  5090 ;; This function calls:
  5091 ;;		_Lcd_Cmd
  5092 ;; This function is called by:
  5093 ;;		_main
  5094 ;; This function uses a non-reentrant model
  5095 ;;
  5096                           
  5097     0B53                     _Lcd_Clear:	
  5098                           ;psect for function _Lcd_Clear
  5099                           
  5100     0B53                     l1808:	
  5101                           ;incstack = 0
  5102                           ; Regs used in _Lcd_Clear: [wreg+status,2+status,0+pclath+cstack]
  5103                           
  5104     0B53  3000               	movlw	0
  5105     0B54  120A  158A  23CC  120A  158A  	fcall	_Lcd_Cmd
  5106     0B59  3001               	movlw	1
  5107     0B5A  120A  158A  23CC  120A  158A  	fcall	_Lcd_Cmd
  5108     0B5F                     l92:
  5109     0B5F  0008               	return
  5110     0B60                     __end_of_Lcd_Clear:
  5111                           
  5112                           	psect	text21
  5113     0BCC                     __ptext21:	
  5114 ;; *************** function _Lcd_Cmd *****************
  5115 ;; Defined at:
  5116 ;;		line 42 in file "fuzzer.c"
  5117 ;; Parameters:    Size  Location     Type
  5118 ;;  a               1    wreg     unsigned char 
  5119 ;; Auto vars:     Size  Location     Type
  5120 ;;  a               1    5[COMMON] unsigned char 
  5121 ;; Return value:  Size  Location     Type
  5122 ;;                  1    wreg      void 
  5123 ;; Registers used:
  5124 ;;		wreg, status,2, status,0, pclath, cstack
  5125 ;; Tracked objects:
  5126 ;;		On entry : 0/0
  5127 ;;		On exit  : 0/0
  5128 ;;		Unchanged: 0/0
  5129 ;; Data sizes:     COMMON   BANK0   BANK1   BANK3   BANK2
  5130 ;;      Params:         0       0       0       0       0
  5131 ;;      Locals:         1       0       0       0       0
  5132 ;;      Temps:          2       0       0       0       0
  5133 ;;      Totals:         3       0       0       0       0
  5134 ;;Total ram usage:        3 bytes
  5135 ;; Hardware stack levels used: 1
  5136 ;; Hardware stack levels required when called: 1
  5137 ;; This function calls:
  5138 ;;		_Lcd_Port
  5139 ;; This function is called by:
  5140 ;;		_Lcd_Clear
  5141 ;;		_Lcd_Set_Cursor
  5142 ;;		_Lcd_Init
  5143 ;; This function uses a non-reentrant model
  5144 ;;
  5145                           
  5146     0BCC                     _Lcd_Cmd:	
  5147                           ;psect for function _Lcd_Cmd
  5148                           
  5149                           
  5150                           ;incstack = 0
  5151                           ; Regs used in _Lcd_Cmd: [wreg+status,2+status,0+pclath+cstack]
  5152                           ;Lcd_Cmd@a stored from wreg
  5153     0BCC  00F5               	movwf	Lcd_Cmd@a
  5154     0BCD                     l1698:
  5155     0BCD  1283               	bcf	3,5	;RP0=0, select bank0
  5156     0BCE  1303               	bcf	3,6	;RP1=0, select bank0
  5157     0BCF  1108               	bcf	8,2	;volatile
  5158     0BD0                     l1700:
  5159     0BD0  0875               	movf	Lcd_Cmd@a,w
  5160     0BD1  120A  118A  24DE  120A  158A  	fcall	_Lcd_Port
  5161     0BD6                     l1702:
  5162     0BD6  1283               	bcf	3,5	;RP0=0, select bank0
  5163     0BD7  1303               	bcf	3,6	;RP1=0, select bank0
  5164     0BD8  1588               	bsf	8,3	;volatile
  5165     0BD9                     l1704:
  5166     0BD9  301A               	movlw	26
  5167     0BDA  00F4               	movwf	??_Lcd_Cmd+1
  5168     0BDB  30F8               	movlw	248
  5169     0BDC  00F3               	movwf	??_Lcd_Cmd
  5170     0BDD                     u2407:
  5171     0BDD  0BF3               	decfsz	??_Lcd_Cmd,f
  5172     0BDE  2BDD               	goto	u2407
  5173     0BDF  0BF4               	decfsz	??_Lcd_Cmd+1,f
  5174     0BE0  2BDD               	goto	u2407
  5175     0BE1  0000               	nop
  5176     0BE2                     l1706:
  5177     0BE2  1283               	bcf	3,5	;RP0=0, select bank0
  5178     0BE3  1303               	bcf	3,6	;RP1=0, select bank0
  5179     0BE4  1188               	bcf	8,3	;volatile
  5180     0BE5                     l89:
  5181     0BE5  0008               	return
  5182     0BE6                     __end_of_Lcd_Cmd:
  5183                           
  5184                           	psect	text22
  5185     04DE                     __ptext22:	
  5186 ;; *************** function _Lcd_Port *****************
  5187 ;; Defined at:
  5188 ;;		line 41 in file "fuzzer.c"
  5189 ;; Parameters:    Size  Location     Type
  5190 ;;  a               1    wreg     unsigned char 
  5191 ;; Auto vars:     Size  Location     Type
  5192 ;;  a               1    2[COMMON] unsigned char 
  5193 ;; Return value:  Size  Location     Type
  5194 ;;                  1    wreg      void 
  5195 ;; Registers used:
  5196 ;;		wreg
  5197 ;; Tracked objects:
  5198 ;;		On entry : 0/0
  5199 ;;		On exit  : 0/0
  5200 ;;		Unchanged: 0/0
  5201 ;; Data sizes:     COMMON   BANK0   BANK1   BANK3   BANK2
  5202 ;;      Params:         0       0       0       0       0
  5203 ;;      Locals:         1       0       0       0       0
  5204 ;;      Temps:          0       0       0       0       0
  5205 ;;      Totals:         1       0       0       0       0
  5206 ;;Total ram usage:        1 bytes
  5207 ;; Hardware stack levels used: 1
  5208 ;; Hardware stack levels required when called: 1
  5209 ;; This function calls:
  5210 ;;		Nothing
  5211 ;; This function is called by:
  5212 ;;		_Lcd_Cmd
  5213 ;;		_Lcd_Write_Char
  5214 ;;		_Lcd_Init
  5215 ;; This function uses a non-reentrant model
  5216 ;;
  5217                           
  5218     04DE                     _Lcd_Port:	
  5219                           ;psect for function _Lcd_Port
  5220                           
  5221                           
  5222                           ;incstack = 0
  5223                           ; Regs used in _Lcd_Port: [wreg]
  5224                           ;Lcd_Port@a stored from wreg
  5225     04DE  00F2               	movwf	Lcd_Port@a
  5226     04DF                     l1630:
  5227     04DF  1C72               	btfss	Lcd_Port@a,0
  5228     04E0  2CE2               	goto	u1391
  5229     04E1  2CE3               	goto	u1390
  5230     04E2                     u1391:
  5231     04E2  2CE7               	goto	l78
  5232     04E3                     u1390:
  5233     04E3                     l1632:
  5234     04E3  1283               	bcf	3,5	;RP0=0, select bank0
  5235     04E4  1303               	bcf	3,6	;RP1=0, select bank0
  5236     04E5  1608               	bsf	8,4	;volatile
  5237     04E6  2CEA               	goto	l79
  5238     04E7                     l78:
  5239     04E7  1283               	bcf	3,5	;RP0=0, select bank0
  5240     04E8  1303               	bcf	3,6	;RP1=0, select bank0
  5241     04E9  1208               	bcf	8,4	;volatile
  5242     04EA                     l79:
  5243     04EA  1CF2               	btfss	Lcd_Port@a,1
  5244     04EB  2CED               	goto	u1401
  5245     04EC  2CEE               	goto	u1400
  5246     04ED                     u1401:
  5247     04ED  2CF0               	goto	l80
  5248     04EE                     u1400:
  5249     04EE                     l1634:
  5250     04EE  1688               	bsf	8,5	;volatile
  5251     04EF  2CF1               	goto	l81
  5252     04F0                     l80:
  5253     04F0  1288               	bcf	8,5	;volatile
  5254     04F1                     l81:
  5255     04F1  1D72               	btfss	Lcd_Port@a,2
  5256     04F2  2CF4               	goto	u1411
  5257     04F3  2CF5               	goto	u1410
  5258     04F4                     u1411:
  5259     04F4  2CF7               	goto	l82
  5260     04F5                     u1410:
  5261     04F5                     l1636:
  5262     04F5  1708               	bsf	8,6	;volatile
  5263     04F6  2CF8               	goto	l83
  5264     04F7                     l82:
  5265     04F7  1308               	bcf	8,6	;volatile
  5266     04F8                     l83:
  5267     04F8  1DF2               	btfss	Lcd_Port@a,3
  5268     04F9  2CFB               	goto	u1421
  5269     04FA  2CFC               	goto	u1420
  5270     04FB                     u1421:
  5271     04FB  2CFE               	goto	l84
  5272     04FC                     u1420:
  5273     04FC                     l1638:
  5274     04FC  1788               	bsf	8,7	;volatile
  5275     04FD  2CFF               	goto	l86
  5276     04FE                     l84:
  5277     04FE  1388               	bcf	8,7	;volatile
  5278     04FF                     l86:
  5279     04FF  0008               	return
  5280     0500                     __end_of_Lcd_Port:
  5281                           
  5282                           	psect	text23
  5283     0BE6                     __ptext23:	
  5284 ;; *************** function _EEPROM_Write *****************
  5285 ;; Defined at:
  5286 ;;		line 30 in file "fuzzer.c"
  5287 ;; Parameters:    Size  Location     Type
  5288 ;;  addr            1    wreg     unsigned char 
  5289 ;;  data            1    2[COMMON] unsigned char 
  5290 ;; Auto vars:     Size  Location     Type
  5291 ;;  addr            1    3[COMMON] unsigned char 
  5292 ;; Return value:  Size  Location     Type
  5293 ;;                  1    wreg      void 
  5294 ;; Registers used:
  5295 ;;		wreg
  5296 ;; Tracked objects:
  5297 ;;		On entry : 0/0
  5298 ;;		On exit  : 0/0
  5299 ;;		Unchanged: 0/0
  5300 ;; Data sizes:     COMMON   BANK0   BANK1   BANK3   BANK2
  5301 ;;      Params:         1       0       0       0       0
  5302 ;;      Locals:         1       0       0       0       0
  5303 ;;      Temps:          0       0       0       0       0
  5304 ;;      Totals:         2       0       0       0       0
  5305 ;;Total ram usage:        2 bytes
  5306 ;; Hardware stack levels used: 1
  5307 ;; Hardware stack levels required when called: 1
  5308 ;; This function calls:
  5309 ;;		Nothing
  5310 ;; This function is called by:
  5311 ;;		_main
  5312 ;; This function uses a non-reentrant model
  5313 ;;
  5314                           
  5315     0BE6                     _EEPROM_Write:	
  5316                           ;psect for function _EEPROM_Write
  5317                           
  5318                           
  5319                           ;incstack = 0
  5320                           ; Regs used in _EEPROM_Write: [wreg]
  5321                           ;EEPROM_Write@addr stored from wreg
  5322     0BE6  00F3               	movwf	EEPROM_Write@addr
  5323     0BE7                     l1782:
  5324                           
  5325                           ;fuzzer.c: 31:     while(EECON1bits.WR) __asm("clrwdt");
  5326     0BE7  2BE9               	goto	l63
  5327     0BE8                     l64:
  5328     0BE8  0064               	clrwdt	;# 
  5329     0BE9                     l63:
  5330     0BE9  1683               	bsf	3,5	;RP0=1, select bank3
  5331     0BEA  1703               	bsf	3,6	;RP1=1, select bank3
  5332     0BEB  188C               	btfsc	12,1	;volsfr
  5333     0BEC  2BEE               	goto	u1661
  5334     0BED  2BEF               	goto	u1660
  5335     0BEE                     u1661:
  5336     0BEE  2BE8               	goto	l64
  5337     0BEF                     u1660:
  5338     0BEF                     l1784:
  5339                           
  5340                           ;fuzzer.c: 32:     EEADR=addr; EEDATA=data; EECON1bits.EEPGD=0; EECON1bits.WREN=1;
  5341     0BEF  0873               	movf	EEPROM_Write@addr,w
  5342     0BF0  1283               	bcf	3,5	;RP0=0, select bank2
  5343     0BF1  1703               	bsf	3,6	;RP1=1, select bank2
  5344     0BF2  008D               	movwf	13	;volatile
  5345     0BF3  0872               	movf	EEPROM_Write@data,w
  5346     0BF4  008C               	movwf	12	;volatile
  5347     0BF5                     l1786:
  5348     0BF5  1683               	bsf	3,5	;RP0=1, select bank3
  5349     0BF6  1703               	bsf	3,6	;RP1=1, select bank3
  5350     0BF7  138C               	bcf	12,7	;volsfr
  5351     0BF8                     l1788:
  5352     0BF8  150C               	bsf	12,2	;volsfr
  5353     0BF9                     l1790:
  5354                           
  5355                           ;fuzzer.c: 33:     INTCONbits.GIE=0; EECON2=0x55; EECON2=0xAA; EECON1bits.WR=1;
  5356     0BF9  138B               	bcf	11,7	;volatile
  5357     0BFA                     l1792:
  5358     0BFA  3055               	movlw	85
  5359     0BFB  008D               	movwf	13	;volsfr
  5360     0BFC                     l1794:
  5361     0BFC  30AA               	movlw	170
  5362     0BFD  008D               	movwf	13	;volsfr
  5363     0BFE                     l1796:
  5364     0BFE  148C               	bsf	12,1	;volsfr
  5365                           
  5366                           ;fuzzer.c: 34:     while(EECON1bits.WR) __asm("clrwdt");
  5367     0BFF  2C01               	goto	l66
  5368     0C00                     l67:
  5369     0C00  0064               	clrwdt	;# 
  5370     0C01                     l66:
  5371     0C01  1683               	bsf	3,5	;RP0=1, select bank3
  5372     0C02  1703               	bsf	3,6	;RP1=1, select bank3
  5373     0C03  188C               	btfsc	12,1	;volsfr
  5374     0C04  2C06               	goto	u1671
  5375     0C05  2C07               	goto	u1670
  5376     0C06                     u1671:
  5377     0C06  2C00               	goto	l67
  5378     0C07                     u1670:
  5379     0C07                     l68:
  5380                           
  5381                           ;fuzzer.c: 35:     INTCONbits.GIE=1; EECON1bits.WREN=0;
  5382     0C07  178B               	bsf	11,7	;volatile
  5383     0C08  110C               	bcf	12,2	;volsfr
  5384     0C09                     l69:
  5385     0C09  0008               	return
  5386     0C0A                     __end_of_EEPROM_Write:
  5387                           
  5388                           	psect	text24
  5389     0BA1                     __ptext24:	
  5390 ;; *************** function _EEPROM_Read *****************
  5391 ;; Defined at:
  5392 ;;		line 37 in file "fuzzer.c"
  5393 ;; Parameters:    Size  Location     Type
  5394 ;;  addr            1    wreg     unsigned char 
  5395 ;; Auto vars:     Size  Location     Type
  5396 ;;  addr            1    2[COMMON] unsigned char 
  5397 ;; Return value:  Size  Location     Type
  5398 ;;                  1    wreg      unsigned char 
  5399 ;; Registers used:
  5400 ;;		wreg
  5401 ;; Tracked objects:
  5402 ;;		On entry : 0/0
  5403 ;;		On exit  : 0/0
  5404 ;;		Unchanged: 0/0
  5405 ;; Data sizes:     COMMON   BANK0   BANK1   BANK3   BANK2
  5406 ;;      Params:         0       0       0       0       0
  5407 ;;      Locals:         1       0       0       0       0
  5408 ;;      Temps:          0       0       0       0       0
  5409 ;;      Totals:         1       0       0       0       0
  5410 ;;Total ram usage:        1 bytes
  5411 ;; Hardware stack levels used: 1
  5412 ;; Hardware stack levels required when called: 1
  5413 ;; This function calls:
  5414 ;;		Nothing
  5415 ;; This function is called by:
  5416 ;;		_main
  5417 ;; This function uses a non-reentrant model
  5418 ;;
  5419                           
  5420     0BA1                     _EEPROM_Read:	
  5421                           ;psect for function _EEPROM_Read
  5422                           
  5423                           
  5424                           ;incstack = 0
  5425                           ; Regs used in _EEPROM_Read: [wreg]
  5426                           ;EEPROM_Read@addr stored from wreg
  5427     0BA1  00F2               	movwf	EEPROM_Read@addr
  5428     0BA2                     l1798:
  5429                           
  5430                           ;fuzzer.c: 38:     while(EECON1bits.WR) __asm("clrwdt"); EEADR=addr; EECON1bits.EEPGD=0;
      +                           EECON1bits.RD=1; return EEDATA;
  5431     0BA2  2BA4               	goto	l72
  5432     0BA3                     l73:
  5433     0BA3  0064               	clrwdt	;# 
  5434     0BA4                     l72:
  5435     0BA4  1683               	bsf	3,5	;RP0=1, select bank3
  5436     0BA5  1703               	bsf	3,6	;RP1=1, select bank3
  5437     0BA6  188C               	btfsc	12,1	;volsfr
  5438     0BA7  2BA9               	goto	u1681
  5439     0BA8  2BAA               	goto	u1680
  5440     0BA9                     u1681:
  5441     0BA9  2BA3               	goto	l73
  5442     0BAA                     u1680:
  5443     0BAA                     l1800:
  5444     0BAA  0872               	movf	EEPROM_Read@addr,w
  5445     0BAB  1283               	bcf	3,5	;RP0=0, select bank2
  5446     0BAC  1703               	bsf	3,6	;RP1=1, select bank2
  5447     0BAD  008D               	movwf	13	;volatile
  5448     0BAE                     l1802:
  5449     0BAE  1683               	bsf	3,5	;RP0=1, select bank3
  5450     0BAF  1703               	bsf	3,6	;RP1=1, select bank3
  5451     0BB0  138C               	bcf	12,7	;volsfr
  5452     0BB1                     l1804:
  5453     0BB1  140C               	bsf	12,0	;volsfr
  5454     0BB2  1283               	bcf	3,5	;RP0=0, select bank2
  5455     0BB3  1703               	bsf	3,6	;RP1=1, select bank2
  5456     0BB4  080C               	movf	12,w	;volatile
  5457     0BB5                     l75:
  5458     0BB5  0008               	return
  5459     0BB6                     __end_of_EEPROM_Read:
  5460                           
  5461                           	psect	text25
  5462     0BB6                     __ptext25:	
  5463 ;; *************** function _ADC_Read *****************
  5464 ;; Defined at:
  5465 ;;		line 56 in file "fuzzer.c"
  5466 ;; Parameters:    Size  Location     Type
  5467 ;;		None
  5468 ;; Auto vars:     Size  Location     Type
  5469 ;;		None
  5470 ;; Return value:  Size  Location     Type
  5471 ;;                  2    2[COMMON] unsigned int 
  5472 ;; Registers used:
  5473 ;;		wreg
  5474 ;; Tracked objects:
  5475 ;;		On entry : 0/0
  5476 ;;		On exit  : 0/0
  5477 ;;		Unchanged: 0/0
  5478 ;; Data sizes:     COMMON   BANK0   BANK1   BANK3   BANK2
  5479 ;;      Params:         2       0       0       0       0
  5480 ;;      Locals:         0       0       0       0       0
  5481 ;;      Temps:          1       0       0       0       0
  5482 ;;      Totals:         3       0       0       0       0
  5483 ;;Total ram usage:        3 bytes
  5484 ;; Hardware stack levels used: 1
  5485 ;; Hardware stack levels required when called: 1
  5486 ;; This function calls:
  5487 ;;		Nothing
  5488 ;; This function is called by:
  5489 ;;		_main
  5490 ;; This function uses a non-reentrant model
  5491 ;;
  5492                           
  5493     0BB6                     _ADC_Read:	
  5494                           ;psect for function _ADC_Read
  5495                           
  5496     0BB6                     l1878:	
  5497                           ;incstack = 0
  5498                           ; Regs used in _ADC_Read: [wreg]
  5499                           
  5500     0BB6  3021               	movlw	33
  5501     0BB7  00F4               	movwf	??_ADC_Read
  5502     0BB8                     u2417:
  5503     0BB8  0BF4               	decfsz	??_ADC_Read,f
  5504     0BB9  2BB8               	goto	u2417
  5505     0BBA                     l1880:
  5506     0BBA  1283               	bcf	3,5	;RP0=0, select bank0
  5507     0BBB  1303               	bcf	3,6	;RP1=0, select bank0
  5508     0BBC  151F               	bsf	31,2	;volatile
  5509     0BBD  2BBF               	goto	l144
  5510     0BBE                     l145:
  5511     0BBE  0064               	clrwdt	;# 
  5512     0BBF                     l144:
  5513     0BBF  1283               	bcf	3,5	;RP0=0, select bank0
  5514     0BC0  1303               	bcf	3,6	;RP1=0, select bank0
  5515     0BC1  191F               	btfsc	31,2	;volatile
  5516     0BC2  2BC4               	goto	u1801
  5517     0BC3  2BC5               	goto	u1800
  5518     0BC4                     u1801:
  5519     0BC4  2BBE               	goto	l145
  5520     0BC5                     u1800:
  5521     0BC5                     l1882:
  5522     0BC5  081E               	movf	30,w	;volatile
  5523     0BC6  00F3               	movwf	?_ADC_Read+1
  5524     0BC7  1683               	bsf	3,5	;RP0=1, select bank1
  5525     0BC8  1303               	bcf	3,6	;RP1=0, select bank1
  5526     0BC9  081E               	movf	30,w	;volatile
  5527     0BCA  00F2               	movwf	?_ADC_Read
  5528     0BCB                     l147:
  5529     0BCB  0008               	return
  5530     0BCC                     __end_of_ADC_Read:
  5531                           
  5532                           	psect	text26
  5533     0B4A                     __ptext26:	
  5534 ;; *************** function _ADC_Init *****************
  5535 ;; Defined at:
  5536 ;;		line 55 in file "fuzzer.c"
  5537 ;; Parameters:    Size  Location     Type
  5538 ;;		None
  5539 ;; Auto vars:     Size  Location     Type
  5540 ;;		None
  5541 ;; Return value:  Size  Location     Type
  5542 ;;                  1    wreg      void 
  5543 ;; Registers used:
  5544 ;;		None
  5545 ;; Tracked objects:
  5546 ;;		On entry : 0/0
  5547 ;;		On exit  : 0/0
  5548 ;;		Unchanged: 0/0
  5549 ;; Data sizes:     COMMON   BANK0   BANK1   BANK3   BANK2
  5550 ;;      Params:         0       0       0       0       0
  5551 ;;      Locals:         0       0       0       0       0
  5552 ;;      Temps:          0       0       0       0       0
  5553 ;;      Totals:         0       0       0       0       0
  5554 ;;Total ram usage:        0 bytes
  5555 ;; Hardware stack levels used: 1
  5556 ;; Hardware stack levels required when called: 1
  5557 ;; This function calls:
  5558 ;;		Nothing
  5559 ;; This function is called by:
  5560 ;;		_main
  5561 ;; This function uses a non-reentrant model
  5562 ;;
  5563                           
  5564     0B4A                     _ADC_Init:	
  5565                           ;psect for function _ADC_Init
  5566                           
  5567     0B4A                     l1876:	
  5568                           ;incstack = 0
  5569                           ; Regs used in _ADC_Init: []
  5570                           
  5571     0B4A  3041               	movlw	65
  5572     0B4B  1283               	bcf	3,5	;RP0=0, select bank0
  5573     0B4C  1303               	bcf	3,6	;RP1=0, select bank0
  5574     0B4D  009F               	movwf	31	;volatile
  5575     0B4E  308E               	movlw	142
  5576     0B4F  1683               	bsf	3,5	;RP0=1, select bank1
  5577     0B50  1303               	bcf	3,6	;RP1=0, select bank1
  5578     0B51  009F               	movwf	31	;volatile
  5579     0B52                     l141:
  5580     0B52  0008               	return
  5581     0B53                     __end_of_ADC_Init:
  5582                           
  5583                           	psect	text27
  5584     0B8F                     __ptext27:	
  5585 ;; *************** function _ISR *****************
  5586 ;; Defined at:
  5587 ;;		line 58 in file "fuzzer.c"
  5588 ;; Parameters:    Size  Location     Type
  5589 ;;		None
  5590 ;; Auto vars:     Size  Location     Type
  5591 ;;		None
  5592 ;; Return value:  Size  Location     Type
  5593 ;;                  1    wreg      void 
  5594 ;; Registers used:
  5595 ;;		wreg
  5596 ;; Tracked objects:
  5597 ;;		On entry : 0/0
  5598 ;;		On exit  : 0/0
  5599 ;;		Unchanged: 0/0
  5600 ;; Data sizes:     COMMON   BANK0   BANK1   BANK3   BANK2
  5601 ;;      Params:         0       0       0       0       0
  5602 ;;      Locals:         0       0       0       0       0
  5603 ;;      Temps:          2       0       0       0       0
  5604 ;;      Totals:         2       0       0       0       0
  5605 ;;Total ram usage:        2 bytes
  5606 ;; Hardware stack levels used: 1
  5607 ;; This function calls:
  5608 ;;		Nothing
  5609 ;; This function is called by:
  5610 ;;		Interrupt level 1
  5611 ;; This function uses a non-reentrant model
  5612 ;;
  5613                           
  5614     0B8F                     _ISR:	
  5615                           ;psect for function _ISR
  5616                           
  5617     0B8F                     i1l1946:
  5618                           
  5619                           ;fuzzer.c: 59:     if(INTCONbits.INTF) { abortar=1; INTCONbits.INTF=0; }
  5620     0B8F  1C8B               	btfss	11,1	;volatile
  5621     0B90  2B92               	goto	u194_21
  5622     0B91  2B93               	goto	u194_20
  5623     0B92                     u194_21:
  5624     0B92  2B9A               	goto	i1l153
  5625     0B93                     u194_20:
  5626     0B93                     i1l1948:
  5627     0B93  3001               	movlw	1
  5628     0B94  1683               	bsf	3,5	;RP0=1, select bank1
  5629     0B95  1303               	bcf	3,6	;RP1=0, select bank1
  5630     0B96  00C2               	movwf	_abortar^(0+128)	;volatile
  5631     0B97  3000               	movlw	0
  5632     0B98  00C3               	movwf	(_abortar^(0+128)+1)	;volatile
  5633     0B99                     i1l1950:
  5634     0B99  108B               	bcf	11,1	;volatile
  5635     0B9A                     i1l153:
  5636     0B9A  0871               	movf	??_ISR+1,w
  5637     0B9B  008A               	movwf	10
  5638     0B9C  0E70               	swapf	??_ISR,w
  5639     0B9D  0083               	movwf	3
  5640     0B9E  0EFE               	swapf	btemp,f
  5641     0B9F  0E7E               	swapf	btemp,w
  5642     0BA0  0009               	retfie
  5643     0BA1                     __end_of_ISR:
  5644     0002                     ___latbits      equ	2
  5645     007E                     btemp           set	126	;btemp
  5646     007E                     btemp0          set	126
  5647     007F                     btemp1          set	127
  5648     007E                     wtemp0          set	126
  5649     007F                     wtemp0a         set	127
  5650     007F                     ttemp0a         set	127
  5651     0080                     ltemp0a         set	128
  5652                           
  5653                           	psect	intentry
  5654     0004                     __pintentry:	
  5655                           ;incstack = 0
  5656                           ; Regs used in _ISR: [wreg]
  5657                           
  5658     0004                     interrupt_function:
  5659     007E                     saved_w         set	btemp
  5660     0004  00FE               	movwf	btemp
  5661     0005  0E03               	swapf	3,w
  5662     0006  00F0               	movwf	??_ISR
  5663     0007  080A               	movf	10,w
  5664     0008  00F1               	movwf	??_ISR+1
  5665     0009  120A  158A  2B8F   	ljmp	_ISR
  5666                           
  5667                           	psect	config
  5668                           
  5669                           ;Config register CONFIG @ 0x2007
  5670                           ;	Oscillator Selection bits
  5671                           ;	FOSC = HS, HS oscillator
  5672                           ;	Watchdog Timer Enable bit
  5673                           ;	WDTE = ON, WDT enabled
  5674                           ;	Power-up Timer Enable bit
  5675                           ;	PWRTE = ON, PWRT enabled
  5676                           ;	Brown-out Reset Enable bit
  5677                           ;	BOREN = OFF, BOR disabled
  5678                           ;	Low-Voltage (Single-Supply) In-Circuit Serial Programming Enable bit
  5679                           ;	LVP = OFF, RB3 is digital I/O, HV on MCLR must be used for programming
  5680                           ;	Data EEPROM Memory Code Protection bit
  5681                           ;	CPD = OFF, Data EEPROM code protection off
  5682                           ;	Flash Program Memory Write Enable bits
  5683                           ;	WRT = OFF, Write protection off; all program memory may be written to by EECON control
  5684                           ;	In-Circuit Debugger Mode bit
  5685                           ;	DEBUG = 0x1, unprogrammed default
  5686                           ;	Flash Program Memory Code Protection bit
  5687                           ;	CP = OFF, Code protection off
  5688     2007                     	org	8199
  5689     2007  3F36               	dw	16182

Data Sizes:
    Strings     376
    Constant    0
    Data        0
    BSS         41
    Persistent  0
    Stack       0

Auto Spaces:
    Space          Size  Autos    Used
    COMMON           14     12      12
    BANK0            80     53      58
    BANK1            80     28      64
    BANK3            96      0       0
    BANK2            96      0       0

Pointer List with Targets:

    f$.$buffer	PTR unsigned char  size(2) Largest target is 20
		 -> main@s(BANK1[20]), 

    f$.$source	PTR const unsigned char  size(1) Largest target is 0

    fputc@fp	PTR struct _IO_FILE size(2) Largest target is 11
		 -> sprintf@f(BANK0[11]), 

    fputc@fp$.$buffer	PTR unsigned char  size(2) Largest target is 20
		 -> main@s(BANK1[20]), 

    fputc@fp$.$source	PTR const unsigned char  size(1) Largest target is 0

    Lcd_Write_String@a	PTR unsigned char  size(2) Largest target is 24
		 -> main@s(BANK1[20]), STR_1(CODE[21]), STR_10(CODE[17]), STR_11(CODE[16]), 
		 -> STR_12(CODE[16]), STR_13(CODE[16]), STR_14(CODE[16]), STR_15(CODE[17]), 
		 -> STR_16(CODE[15]), STR_17(CODE[13]), STR_18(CODE[17]), STR_19(CODE[17]), 
		 -> STR_2(CODE[21]), STR_20(CODE[17]), STR_21(CODE[17]), STR_22(CODE[21]), 
		 -> STR_23(CODE[17]), STR_24(CODE[17]), STR_25(CODE[17]), STR_26(CODE[16]), 
		 -> STR_27(CODE[21]), STR_28(CODE[17]), STR_3(CODE[16]), STR_30(CODE[23]), 
		 -> STR_31(CODE[13]), STR_32(CODE[13]), STR_33(CODE[24]), STR_4(CODE[16]), 
		 -> STR_5(CODE[21]), STR_6(CODE[16]), STR_7(CODE[21]), STR_8(CODE[21]), 
		 -> STR_9(CODE[21]), 

    S809$buffer	PTR unsigned char  size(2) Largest target is 20
		 -> main@s(BANK1[20]), 

    S809$source	PTR const unsigned char  size(1) Largest target is 0

    sprintf@ap	PTR void [1] size(1) Largest target is 2
		 -> ?_sprintf(BANK0[2]), 

    sprintf@fmt	PTR const unsigned char  size(2) Largest target is 18
		 -> STR_29(CODE[18]), 

    sprintf@s	PTR unsigned char  size(1) Largest target is 20
		 -> main@s(BANK1[20]), 

    vfpfcnvrt@ap	PTR PTR void  size(1) Largest target is 1
		 -> sprintf@ap(BANK0[1]), 

    vfpfcnvrt@cp	PTR unsigned char  size(2) Largest target is 18
		 -> STR_29(CODE[18]), 

    vfpfcnvrt@fmt	PTR PTR unsigned char  size(1) Largest target is 2
		 -> vfprintf@cfmt(BANK0[2]), 

    vfpfcnvrt@fp	PTR struct _IO_FILE size(2) Largest target is 11
		 -> sprintf@f(BANK0[11]), 

    vfprintf@ap	PTR PTR void  size(1) Largest target is 1
		 -> sprintf@ap(BANK0[1]), 

    vfprintf@cfmt	PTR unsigned char  size(2) Largest target is 18
		 -> STR_29(CODE[18]), 

    vfprintf@fmt	PTR const unsigned char  size(2) Largest target is 18
		 -> STR_29(CODE[18]), 

    vfprintf@fp	PTR struct _IO_FILE size(2) Largest target is 11
		 -> sprintf@f(BANK0[11]), 


Critical Paths under _main in COMMON

    _main->_Lcd_Set_Cursor
    _main->_Lcd_Write_String
    _main->___lldiv
    _vfpfcnvrt->_abs
    _abs->___awmod
    ___lldiv->___lmul
    _UART_Init->___aldiv
    _Lcd_Write_String->_Lcd_Write_Char
    _Lcd_Write_Char->_Lcd_Port
    _Lcd_Set_Cursor->_Lcd_Cmd
    _Lcd_Init->_Lcd_Cmd
    _Lcd_Clear->_Lcd_Cmd
    _Lcd_Cmd->_Lcd_Port

Critical Paths under _ISR in COMMON

    None.

Critical Paths under _main in BANK0

    _main->_sprintf
    _sprintf->_vfprintf
    _vfprintf->_vfpfcnvrt
    _vfpfcnvrt->_fputc
    ___lldiv->___lmul
    _UART_Init->___aldiv

Critical Paths under _ISR in BANK0

    None.

Critical Paths under _main in BANK1

    None.

Critical Paths under _ISR in BANK1

    None.

Critical Paths under _main in BANK3

    None.

Critical Paths under _ISR in BANK3

    None.

Critical Paths under _main in BANK2

    None.

Critical Paths under _ISR in BANK2

    None.

Call Graph Tables:

 ---------------------------------------------------------------------------------
 (Depth) Function   	        Calls       Base Space   Used Autos Params    Refs
 ---------------------------------------------------------------------------------
 (0) _main                                                31    31      0    4310
                                             50 BANK0      3     3      0
                                              0 BANK1     28    28      0
                           _ADC_Init
                           _ADC_Read
                        _EEPROM_Read
                       _EEPROM_Write
                          _Lcd_Clear
                           _Lcd_Init
                     _Lcd_Set_Cursor
                     _Lcd_Write_Char
                   _Lcd_Write_String
                    _UART_Data_Ready
                          _UART_Init
                          _UART_Read
                         _UART_Write
                            ___lldiv
                             ___lmul
                            _sprintf
 ---------------------------------------------------------------------------------
 (1) _sprintf                                             20    15      5    1831
                                             32 BANK0     18    13      5
                           _vfprintf
 ---------------------------------------------------------------------------------
 (2) _vfprintf                                             7     2      5    1630
                                             25 BANK0      7     2      5
                          _vfpfcnvrt
 ---------------------------------------------------------------------------------
 (3) _vfpfcnvrt                                           16    12      4    1502
                                              9 BANK0     16    12      4
                            ___awdiv
                            ___awmod
                                _abs
                              _fputc
 ---------------------------------------------------------------------------------
 (4) _fputc                                               13     9      4     232
                                              2 COMMON     4     0      4
                                              0 BANK0      9     9      0
                              _putch
 ---------------------------------------------------------------------------------
 (5) _putch                                                1     1      0       0
 ---------------------------------------------------------------------------------
 (4) _abs                                                  4     2      2      67
                                              8 COMMON     4     2      2
                            ___awmod (ARG)
 ---------------------------------------------------------------------------------
 (4) ___awmod                                              6     2      4     298
                                              2 COMMON     6     2      4
 ---------------------------------------------------------------------------------
 (4) ___awdiv                                              8     4      4     302
                                              2 COMMON     8     4      4
 ---------------------------------------------------------------------------------
 (1) ___lmul                                              13     5      8      94
                                              2 COMMON     9     1      8
                                              0 BANK0      4     4      0
 ---------------------------------------------------------------------------------
 (1) ___lldiv                                             14     6      8     164
                                             11 COMMON     1     1      0
                                              4 BANK0     13     5      8
                             ___lmul (ARG)
 ---------------------------------------------------------------------------------
 (1) _UART_Write                                           1     1      0      29
                                              2 COMMON     1     1      0
 ---------------------------------------------------------------------------------
 (1) _UART_Read                                            0     0      0       0
 ---------------------------------------------------------------------------------
 (1) _UART_Init                                            8     4      4     325
                                              6 BANK0      8     4      4
                            ___aldiv
 ---------------------------------------------------------------------------------
 (2) ___aldiv                                             15     7      8     302
                                              2 COMMON     9     1      8
                                              0 BANK0      6     6      0
 ---------------------------------------------------------------------------------
 (1) _UART_Data_Ready                                      1     1      0       0
                                              2 COMMON     1     1      0
 ---------------------------------------------------------------------------------
 (1) _Lcd_Write_String                                     7     5      2     345
                                              7 COMMON     5     3      2
                                              0 BANK0      2     2      0
                     _Lcd_Write_Char
 ---------------------------------------------------------------------------------
 (2) _Lcd_Write_Char                                       4     4      0     222
                                              3 COMMON     4     4      0
                           _Lcd_Port
 ---------------------------------------------------------------------------------
 (1) _Lcd_Set_Cursor                                       6     5      1     449
                                              6 COMMON     6     5      1
                            _Lcd_Cmd
 ---------------------------------------------------------------------------------
 (1) _Lcd_Init                                             2     2      0     261
                                              6 COMMON     2     2      0
                            _Lcd_Cmd
                           _Lcd_Port
 ---------------------------------------------------------------------------------
 (1) _Lcd_Clear                                            0     0      0     145
                            _Lcd_Cmd
 ---------------------------------------------------------------------------------
 (2) _Lcd_Cmd                                              3     3      0     145
                                              3 COMMON     3     3      0
                           _Lcd_Port
 ---------------------------------------------------------------------------------
 (3) _Lcd_Port                                             1     1      0     116
                                              2 COMMON     1     1      0
 ---------------------------------------------------------------------------------
 (1) _EEPROM_Write                                         2     1      1      52
                                              2 COMMON     2     1      1
 ---------------------------------------------------------------------------------
 (1) _EEPROM_Read                                          1     1      0      29
                                              2 COMMON     1     1      0
 ---------------------------------------------------------------------------------
 (1) _ADC_Read                                             3     1      2       0
                                              2 COMMON     3     1      2
 ---------------------------------------------------------------------------------
 (1) _ADC_Init                                             0     0      0       0
 ---------------------------------------------------------------------------------
 Estimated maximum stack depth 5
 ---------------------------------------------------------------------------------
 (Depth) Function   	        Calls       Base Space   Used Autos Params    Refs
 ---------------------------------------------------------------------------------
 (6) _ISR                                                  2     2      0       0
                                              0 COMMON     2     2      0
 ---------------------------------------------------------------------------------
 Estimated maximum stack depth 6
 ---------------------------------------------------------------------------------

 Call Graph Graphs:

 _main (ROOT)
   _ADC_Init
   _ADC_Read
   _EEPROM_Read
   _EEPROM_Write
   _Lcd_Clear
     _Lcd_Cmd
       _Lcd_Port
   _Lcd_Init
     _Lcd_Cmd
     _Lcd_Port
   _Lcd_Set_Cursor
     _Lcd_Cmd
   _Lcd_Write_Char
     _Lcd_Port
   _Lcd_Write_String
     _Lcd_Write_Char
   _UART_Data_Ready
   _UART_Init
     ___aldiv
   _UART_Read
   _UART_Write
   ___lldiv
     ___lmul (ARG)
   ___lmul
   _sprintf
     _vfprintf
       _vfpfcnvrt
         ___awdiv
         ___awmod
         _abs
           ___awmod (ARG)
         _fputc
           _putch

 _ISR (ROOT)

Address spaces:
Name               Size   Autos  Total    Usage
BITCOMMON           14      0       0      0.0%
BITBANK0            80      0       0      0.0%
BITBANK1            80      0       0      0.0%
BITBANK3            96      0       0      0.0%
BITBANK2            96      0       0      0.0%
COMMON              14     12      12     85.7%
BANK0               80     53      58     72.5%
BANK1               80     28      64     80.0%
BANK3               96      0       0      0.0%
BANK2               96      0       0      0.0%
STACK                0      0       0      0.0%
DATA                 0      0     134      0.0%


Microchip Technology PIC Macro Assembler V3.10 build 20250813170317 
Symbol Table                                                                                   Tue Dec  2 13:03:02 2025

                       pc 0002                        l63 0BE9                        l72 0BA4  
                      l64 0BE8                        l80 04F0                        l73 0BA3  
                      l81 04F1                        l66 0C01                        l82 04F7  
                      l75 0BB5                        l67 0C00                        l83 04F8  
                      l68 0C07                        l84 04FE                        l92 0B5F  
                      l69 0C09                        l86 04FF                        l78 04E7  
                      l79 04EA                        l96 0CE2                        l89 0BE5  
            ___awdiv@sign 0077                        fsr 0004                       l101 0CFC  
                     l110 07FF                       l104 0CC0                       l120 0B62  
                     l113 0DFD                       l122 0B6D                       l131 0B70  
                     l116 0C89                       l132 0B6F                       l141 0B52  
                     l133 0B76                       l135 0B7D                       l119 0B63  
                     l144 0BBF                       l160 00B9                       l145 0BBE  
                     l138 0B41                       l314 0D48                       l147 0BCB  
                     l163 012A                       l172 0236                       l164 0129  
                     l173 0235                       l336 0EC6                       l176 023D  
                     l194 03AE                       l186 02EC                       l195 03AD  
                     l187 02EB                       l365 0EDB                       l453 0E60  
                     l198 03B5                       l375 0F5F                       l801 07B9  
                     l466 0D9F                       l815 0B8E                       l808 0C55  
                     l827 0FFF                       l763 0C2E                       l838 0003  
                     _RD2 0042                       _RD3 0043                       _RD4 0044  
                     _RD5 0045                       _RD6 0046                       _RD7 0047  
                     _ISR 0B8F                       _abs 0B7E                       fsr0 0004  
                     indf 0000              ___awmod@sign 0077                      ?_ISR 0070  
                    l2000 00BA                      l2010 00EB                      l2002 00C2  
                    ?_abs 0078                      l2100 028C                      l2020 010B  
                    l2012 00ED                      l2004 00CF                      l2102 0296  
                    l2110 02BF                      l2030 0145                      l2014 00F2  
                    l2006 00D8                      l2022 0114                      l2200 04AD  
                    l2120 02F2                      l2112 02C7                      l2104 029E  
                    l2040 016D                      l2032 014B                      l2024 011A  
                    l2016 00FA                      l2008 00E7                      l2210 04D4  
                    l2202 04B3                      l2130 0318                      l2122 02FB  
                    l2114 02D0                      l2106 02A7                      l2050 0197  
                    l2042 0175                      l2034 0153                      l2026 0130  
                    l2018 0103                      l2204 04BB                      l2140 0349  
                    l2132 0320                      l2124 0301                      l2116 02E1  
                    l2108 02B7                      l2060 01D3                      l2052 01A8  
                    l2044 017E                      l2036 015C                      l2028 0138  
                    l2206 04C3                      l2150 037A                      l2142 0352  
                    l2134 032F                      l2126 0307                      l2070 0206  
                    l2062 01DC                      l2054 01B1                      l2046 0186  
                    l2038 0164                      l1600 0D91                      l2160 03B6  
                    l2208 04CC                      l2152 0383                      l2136 0337  
                    l2128 030F                      l2144 0361                      l2080 022B  
                    l2064 01E4                      l2056 01B9                      l2048 018E  
                    l2072 020F                      l1530 0E03                      l1602 0D96  
                    l1610 0F66                      l2170 0425                      l2162 03C1  
                    l2154 038C                      l2146 0369                      l2138 0341  
                    l2090 025D                      l2074 0215                      l2066 01ED  
                    l2058 01C2                      l1700 0BD0                      l1540 0E15  
                    l1532 0E08                      l1604 0D9B                      l1612 0F6C  
                    l2180 044A                      l2164 03FB                      l2156 0394  
                    l2148 0372                      l2092 0263                      l2084 0245  
                    l2076 021D                      l2068 01FE                      l1630 04DF  
                    l1702 0BD6                      l1710 0C8D                      l1550 0E29  
                    l1542 0E17                      l1534 0E0A                      l1526 0DFE  
                    l1622 0B7E                      l1614 0F73                      l2190 0480  
                    l2182 0451                      l2174 042C                      l2166 0414  
                    l2158 039D                      l2094 0273                      l2086 024F  
                    l2078 0223                      l1800 0BAA                      l1632 04E3  
                    l1704 0BD9                      l1720 0CA7                      l1712 0C8F  
                    l1560 0E4C                      l1552 0E2D                      l1544 0E1D  
                    l1536 0E0E                      l1528 0DFF                      l1624 0B82  
                    l1616 0F8D                      l1608 0F60                      l1640 0678  
                    l2184 0460                      l2192 0487                      l2176 0439  
                    l2168 041C                      l2096 027C                      l2088 0257  
                    l1802 0BAE                      l1634 04EE                      l1706 0BE2  
                    l1810 0CC2                      l1730 0CBD                      l1722 0CAC  
                    l1714 0C93                      l1554 0E3E                      l1546 0E20  
                    l1562 0E52                      l1538 0E13                      l1570 0D49  
                    l1626 0B83                      l1618 0FBF                      l1650 06A8  
                    l1642 0690                      l2194 048F                      l2186 046F  
                    l2178 0441                      l2098 0284                      l1804 0BB1  
                    l1636 04F5                      l1820 0CDB                      l1812 0CC7  
                    l1724 0CAF                      l1716 0C96                      l1708 0C8B  
                    l1740 0EEA                      l1732 0EC7                      l1900 0CFD  
                    l1564 0E57                      l1556 0E44                      l1548 0E27  
                    l1580 0D59                      l1572 0D4A                      l1660 06F0  
                    l1652 06B6                      l1644 0698                      l2196 0498  
                    l2188 0477                      l1638 04FC                      l1830 0CF6  
                    l1822 0CDF                      l1814 0CCB                      l1726 0CB5  
                    l1718 0CA4                      l1750 0F0A                      l1742 0EEC  
                    l1734 0ECA                      l1910 0D3E                      l1902 0D07  
                    l1566 0E5C                      l1558 0E45                      l1590 0D70  
                    l1582 0D5E                      l1574 0D4E                      l1670 0734  
                    l1662 070F                      l1654 06C4                      l1646 069C  
                    l2198 049E                      l1808 0B53                      l1840 0DA0  
                    l1824 0CEC                      l1816 0CD1                      l1728 0CB8  
                    l1832 07BA                      l1760 0F38                      l1752 0F0E  
                    l1744 0EF4                      l1736 0ECE                      l1920 0E81  
                    l1904 0D0B                      l1592 0D74                      l1584 0D64  
                    l1576 0D53                      l1672 0739                      l1664 0724  
                    l1656 06E7                      l1680 0761                      l1648 06A0  
                    l1842 0DA6                      l1826 0CEE                      l1818 0CD5  
                    l1834 07BF                      l1762 0F41                      l1754 0F17  
                    l1746 0EFC                      l1738 0EDF                      l1850 0C56  
                    l1930 0EAF                      l1922 0E85                      l1914 0E61  
                    l1906 0D24                      l1594 0D7E                      l1586 0D67  
                    l1578 0D55                      l1682 0777                      l1674 0742  
                    l1666 072A                      l1658 06E9                      l1844 0DAF  
                    l1828 0CF0                      l1836 07DB                      l1756 0F29  
                    l1748 0EFF                      l1764 0F47                      l1852 0C83  
                    l1860 0B61                      l1932 0EB8                      l1924 0E8E  
                    l1916 0E73                      l1908 0D2D                      l1596 0D84  
                    l1588 0D6E                      l1684 077F                      l1676 0756  
                    l1668 072F                      l1692 0798                      l1772 0C2F  
                    l1790 0BF9                      l1782 0BE7                      l1846 0DBE  
                    l1838 07E3                      l1766 0F4C                      l1758 0F37  
                    l1854 0C84                      l1862 0B69                      l1926 0EA0  
                    l1918 0E76                      l1934 0EBE                      l1598 0D8B  
                    l1678 075A                      l1774 0C36                      l1880 0BBA  
                    l1792 0BFA                      l1784 0BEF                      l1848 0DC4  
                    l1872 0B3B                      l1768 0F57                      l1856 0C85  
                    l1864 0B6E                      l1928 0EAE                      l1688 078D  
                    l1776 0C43                      l1960 002A                      l1952 0023  
                    l1882 0BC5                      l1794 0BFC                      l1786 0BF5  
                    l1698 0BCD                      l1858 0C88                      l1866 0B7A  
                    l1778 0C53                      l1890 0C12                      l1970 0041  
                    l1962 002B                      l1954 0026                      l1876 0B4A  
                    l1796 0BFE                      l1788 0BF8                      l1868 0B7C  
                    l1892 0C14                      l1980 0064                      l1972 0046  
                    l1964 002C                      l1956 0028                      l1878 0BB6  
                    l1798 0BA2                      l1894 0C16                      l1886 0C0A  
                    l1990 007D                      l1974 004B                      l1966 002D  
                    l1958 0029                      l1896 0C25                      l1888 0C0E  
                    l1992 0085                      l1976 0053                      l1968 003C  
                    l1994 0092                      l1986 0068                      l1978 005C  
                    l1996 009F                      l1988 006E                      l1998 00A8  
                    STR_1 052F                      STR_2 052F                      STR_3 062F  
                    STR_4 05EF                      STR_5 052F                      STR_6 062F  
                    STR_7 0503                      STR_8 0503                      STR_9 0503  
                    u1200 0E3E                      u2000 0186                      u1201 0E3D  
                    u2001 0185                      u2010 01B1                      u2011 01B0  
                    u1220 0E52                      u1140 0E03                      u2100 0263  
                    u2020 01DC                      u1221 0E51                      u1205 0E3A  
                    u1141 0E02                      u2101 0262                      u2021 01DB  
                    u1230 0E57                      u1150 0E0E                      u1310 0D91  
                    u2110 0284                      u2030 0215                      u1231 0E56  
                    u1215 0E46                      u1151 0E0D                      u1311 0D90  
                    u2111 0283                      u2031 0214                      u1400 04EE  
                    u1160 0E1D                      u1320 0D96                      u1240 0D4E  
                    u2200 0439                      u2120 02BF                      u2040 021D  
                    u1401 04ED                      u1161 0E1C                      u1321 0D95  
                    u1305 0D85                      u1241 0D4D                      u2201 0438  
                    u2121 02BE                      u2041 021C                      u1410 04F5  
                    u1250 0D59                      u1330 0F66                      u2210 0460  
                    u2130 02EA                      u2050 0223                      u1411 04F4  
                    u1251 0D58                      u1331 0F65                      u2211 045F  
                    u2131 02E9                      u2051 0222                      u1420 04FC  
                    u1180 0E2D                      u1260 0D64                      u1340 0F6C  
                    u1500 0734                      u2220 046F                      u2140 02F2  
                    u2060 023C                      u1421 04FB                      u1181 0E2C  
                    u1261 0D63                      u1341 0F6B                      u1501 0733  
                    u2221 046E                      u2205 0435                      u2141 02F1  
                    u2061 023B                      u1350 0F8D                      u1510 0739  
                    u1430 0690                      u2230 04B3                      u2150 0301  
                    u2070 0244                      u1175 0E21                      u1351 0F8C  
                    u1511 0738                      u1431 068F                      u2231 04B2  
                    u2215 045C                      u2151 0300                      u2071 0243  
                    u1280 0D74                      u1360 0FBF                      u1520 0760  
                    u1440 06B6                      u2240 04BB                      u2160 0307  
                    u2080 024F                      u1281 0D73                      u1361 0FBE  
                    u1521 075F                      u1441 06B5                      u2241 04BA  
                    u2225 046B                      u2161 0306                      u2081 024E  
                    u1610 0F29                      u1290 0D7E                      u1370 0FE2  
                    u1530 0777                      u1450 06C4                      u2250 04D4  
                    u2170 038C                      u2090 025D                      u1611 0F28  
                    u1195 0E2E                      u1291 0D7D                      u1275 0D68  
                    u1531 0776                      u1451 06C3                      u2251 04D3  
                    u2171 038B                      u2307 02AF                      u2091 025C  
                    u1700 0CD1                      u1380 0B82                      u1460 06EE  
                    u2260 04DA                      u2180 03B4                      u1701 0CD0  
                    u1605 0F10                      u1381 0B81                      u1365 0FBB  
                    u1461 06EC                      u2261 04D9                      u2181 03B3  
                    u2317 0328                      u1390 04E3                      u1710 0CDB  
                    u1630 0F47                      u1550 0ECE                      u1470 06EF  
                    u2190 042B                      u1391 04E2                      u2407 0BDD  
                    u1711 0CDA                      u1631 0F46                      u1615 0F25  
                    u1551 0ECD                      u1295 0D7A                      u2191 042A  
                    u2327 035A                      u1800 0BC5                      u1640 0F4C  
                    u1560 0EDF                      u1480 072A                      u1801 0BC4  
                    u2417 0BB8                      u1545 0C99                      u1641 0F4B  
                    u1625 0F39                      u1561 0EDE                      u1481 0729  
                    u2337 03A5                      u1730 07C9                      u1570 0EFC  
                    u1810 0D0B                      u1490 072F                      u1650 0C53  
                    u1571 0EFB                      u1811 0D0A                      u1491 072E  
                    u1651 0C52                      u2347 04A6                      u1660 0BEF  
                    u1740 07ED                      u1900 0EA0                      u1661 0BEE  
                    u1725 0CE5                      u2357 0CA9                      u1901 0E9F  
                    u1821 0D16                      u2277 0076                      u1670 0C07  
                    u1750 07FF                      u1590 0F0E                      u1822 0D1D  
                    u1671 0C06                      u2367 0CBA                      u1751 07FE  
                    u1591 0F0D                      u1823 0D24                      u2287 00E0  
                    u1680 0BAA                      u1760 0C66                      u1920 0EBE  
                    u1681 0BA9                      u2377 0DAA                      u1585 0F01  
                    u1921 0EBD                      u1905 0E9C                      u2297 0122  
                    u1690 0CC7                      u1770 0B69                      u1850 0D3E  
                    u2387 0DB9                      u1691 0CC6                      u1771 0B68  
                    u1915 0EB0                      u1851 0D3D                      u1835 0D26  
                    u1780 0B76                      u1860 0E73                      u2397 0DC8  
                    u1765 0C61                      u1781 0B75                      u1861 0E72  
                    u1845 0D2E                      u1790 0B7A                      u1950 0092  
                    u1791 0B79                      u1951 0091                      u1880 0E85  
                    u1960 00C2                      u1881 0E84                      u1961 00C1  
                    u1970 011A                      u1875 0E78                      u1971 0119  
                    u1955 008E                      u1980 0130                      u1981 012F  
                    u1990 0145                      u1895 0E87                      u1991 0144  
                    u1995 0141                      abs@a 0078         ?_Lcd_Write_String 0077  
                    _dbuf 00A0                      _main 0023                      _menu 00C0  
                    _prec 0057                      btemp 007E          __end_of_ADC_Init 0B53  
        __end_of_ADC_Read 0BCC                      start 000C        ??_Lcd_Write_String 0079  
         __end_of_Lcd_Cmd 0BE6                     ??_ISR 0070                     ??_abs 007A  
    __end_of_EEPROM_Write 0C0A           __end_of___aldiv 0F60                     ?_main 0070  
         __end_of___awdiv 0E61                     _EEADR 010D                     STR_10 05CD  
                   STR_11 05FF                     STR_12 063F                     STR_20 0567  
                   STR_21 05CD                     STR_13 061F                     STR_22 0503  
                   STR_14 060F                     STR_30 0518                     STR_31 066B  
                   STR_15 05BC                     STR_23 05AB                     STR_32 066B  
                   STR_16 064F                     STR_24 0556                     STR_17 065E  
                   STR_25 059A                     STR_33 0500                     STR_26 063F  
                   STR_18 0589                     STR_27 0503                     STR_19 0578  
                   STR_28 05DE           __end_of___awmod 0DA0                     STR_29 0544  
         __end_of___lldiv 0EC7           ___awdiv@divisor 0072                     i1l153 0B9A  
         ___awdiv@counter 0076                     _RCREG 001A              vfpfcnvrt@fmt 002B  
                   _SPBRG 0099                     _TRISB 0086                     _TRISD 0088  
                   _TXREG 0019       ___lmul@multiplicand 0076               ?_UART_Write 0070  
                   _flags 0059                     _fputc 0F60                     btemp0 007E  
                   btemp1 007F                     _width 0055                     _putch 0003  
                   main@c 00DF                     main@i 00DA                     main@k 00DC  
                   main@s 00C4                     pclath 000A                     status 0003  
                   wtemp0 007E           __end_of_sprintf 0C2F          EEPROM_Write@addr 0073  
        EEPROM_Write@data 0072          __end_of_Lcd_Init 0DFE          __end_of_Lcd_Port 0500  
         __initialization 000F              __end_of_main 04DE                    ??_main 0052  
                  _ADCON0 001F                    _ADCON1 009F                    ?_fputc 0072  
                  _ADRESH 001E                    _ADRESL 009E                    _EEDATA 010C  
                  _EECON2 018D          ___awdiv@dividend 0074                    ?_putch 0070  
                  i1l1950 0B99                    i1l1946 0B8F                    i1l1948 0B93  
                  u194_20 0B93                    u194_21 0B92                 ??_Lcd_Cmd 0073  
           vfpfcnvrt@done 0031              vfprintf@cfmt 003E         __end_of_UART_Init 0C8A  
       __end_of_UART_Read 0B7E                    ___lmul 0CFD                 ??___aldiv 007A  
               ??___awdiv 0076                 ??___awmod 0076                 ??___lldiv 007B  
        ___awdiv@quotient 0078           ___awmod@divisor 0072           ___awmod@counter 0076  
                  fputc@c 0072                    ltemp0a 0080                 ?_ADC_Init 0070  
               ?_ADC_Read 0072                    saved_w 007E                    putch@c 0070  
                  ttemp0a 007F          __end_of_vfprintf 0C56                 ??_sprintf 0045  
                  wtemp0a 007F           Lcd_Set_Cursor@a 007A           Lcd_Set_Cursor@b 0076  
         Lcd_Set_Cursor@t 007B           Lcd_Set_Cursor@y 0079           Lcd_Set_Cursor@z 0078  
 __end_of__initialization 001F         __end_of_Lcd_Clear 0B60            __pcstackCOMMON 0070  
           __end_of_fputc 1000             __end_of_putch 0004            _Lcd_Set_Cursor 0CC1  
          _OPTION_REGbits 0081                ??_ADC_Init 0072                ??_ADC_Read 0074  
               ?_Lcd_Init 0070                 ?_Lcd_Port 0070                   ??_fputc 0020  
                 ??_putch 0072              _EEPROM_Write 0BE6                __pbssBANK0 0055  
              __pbssBANK1 00A0                __pmaintext 0023                   ?___lmul 0072  
              __pintentry 0004            ___lmul@product 0020    __end_of_Lcd_Set_Cursor 0CFD  
            ??_UART_Write 0072                ??_Lcd_Init 0076                ??_Lcd_Port 0072  
              __stringtab 0800            _Lcd_Write_Char 0C8A                   _Lcd_Cmd 0BCC  
                 ___aldiv 0EC7                   ___awdiv 0DFE                   ___awmod 0D49  
                 ___lldiv 0E61        __end_of_UART_Write 0B6E                 ?_vfprintf 0039  
                 _abortar 00C2           ?_Lcd_Set_Cursor 0076                   __ptext1 0C0A  
                 __ptext2 0C2F                   __ptext3 0678                   __ptext4 0F60  
                 __ptext5 0003                   __ptext6 0B7E                   __ptext7 0D49  
                 __ptext8 0DFE                   __ptext9 0CFD          ___awmod@dividend 0074  
        ___aldiv@dividend 0076               UART_Write@d 0072                   _sprintf 0C0A  
                 clrloop0 0B43                   main@pot 00D8    __end_of_Lcd_Write_Char 0CC1  
    end_of_initialization 001F             ??_EEPROM_Read 0072                   fputc@fp 0074  
         ___lldiv@divisor 0024           ___lldiv@counter 0030         __end_of_vfpfcnvrt 07BA  
               _RCSTAbits 0018          ___aldiv@quotient 0022          vfpfcnvrt@convarg 0034  
               Lcd_Port@a 0072              __pstringtext 0500         ??_UART_Data_Ready 0072  
              ??_vfprintf 007C                 _UART_Init 0C56                 _UART_Read 0B6E  
               _PORTBbits 0006           ?_Lcd_Write_Char 0070         Lcd_Write_String@a 0077  
       Lcd_Write_String@i 0020                 _TXSTAbits 0098       __end_of_EEPROM_Read 0BB6  
               _Lcd_Clear 0B53            __end_of___lmul 0D49               vfpfcnvrt@ap 002C  
             vfpfcnvrt@cp 0032               vfpfcnvrt@fp 0029          _Lcd_Write_String 07BA  
              ?_UART_Init 0026                ?_UART_Read 0070       start_initialization 000F  
             __end_of_ISR 0BA1               __end_of_abs 0B8F               vfprintf@fmt 003B  
              ?_Lcd_Clear 0070                  ??___lmul 007A           Lcd_Write_Char@a 0076  
         Lcd_Write_Char@t 0074           Lcd_Write_Char@y 0075                 ___latbits 0002  
           __pcstackBANK0 0020             __pcstackBANK1 00C4                  ?_Lcd_Cmd 0070  
             _EEPROM_Read 0BA1          ??_Lcd_Set_Cursor 0077             UART_Init@baud 0026  
                ?___aldiv 0072                  ?___awdiv 0072                  ?___awmod 0072  
                ?___lldiv 0024               ??_UART_Init 002A               ??_UART_Read 0072  
               __pstrings 0800                  _ADC_Init 0B4A                  _ADC_Read 0BB6  
                ?_sprintf 0040           ___aldiv@divisor 0072         interrupt_function 0004  
         ___aldiv@counter 0020           _UART_Data_Ready 0B3B                 clear_ram0 0B42  
                Lcd_Cmd@a 0075                  _PIR1bits 000C                  _GO_nDONE 00FA  
             ??_Lcd_Clear 0076                 _vfpfcnvrt 0678               __stringbase 0812  
        ??_Lcd_Write_Char 0073                 main@intes 00DD                  _Lcd_Init 0DA0  
                _Lcd_Port 04DE                vfpfcnvrt@c 0038         ___lmul@multiplier 0072  
__end_of_Lcd_Write_String 0800                _EECON1bits 018C                vfprintf@ap 003D  
              vfprintf@fp 0039                ?_vfpfcnvrt 0029        __end_of__stringtab 0812  
              sprintf@fmt 0041                  __ptext10 0E61                  __ptext11 0B60  
                __ptext20 0B53                  __ptext12 0B6E                  __ptext21 0BCC  
                __ptext13 0C56                  __ptext22 04DE                  __ptext14 0EC7  
                __ptext23 0BE6                  __ptext15 0B3B                  __ptext24 0BA1  
                __ptext16 07BA                  __ptext25 0BB6                  __ptext17 0C8A  
                __ptext26 0B4A                  __ptext18 0CC1                  __ptext27 0B8F  
                __ptext19 0DA0   __end_of_UART_Data_Ready 0B42             ?_EEPROM_Write 0072  
                _vfprintf 0C2F                _INTCONbits 000B            ??_EEPROM_Write 0073  
                intlevel1 0000                 sprintf@ap 0046              ?_EEPROM_Read 0070  
        ___lldiv@dividend 0028                 stringcode 080A               ??_vfpfcnvrt 002D  
                sprintf@f 0047                  sprintf@s 0040          ___lldiv@quotient 002C  
                stringtab 0800              ___aldiv@sign 0021                _UART_Write 0B60  
        ?_UART_Data_Ready 0070           EEPROM_Read@addr 0072  
