

Microchip MPLAB XC8 Assembler V3.10 build 20250813170317 
                                                                                               Tue Dec  2 13:03:11 2025

Microchip MPLAB XC8 C Compiler v3.10 (Free license) build 20250813170317 Og1 
     1                           	processor	16F877A
     2                           	pagewidth 120
     3                           	opt	flic
     4                           	psect	idataBANK1,global,class=CODE,space=0,delta=2,noexec
     5                           	psect	strings,global,class=STRING,space=0,delta=2,noexec
     6                           	psect	cinit,global,class=CODE,space=0,merge=1,delta=2
     7                           	psect	bssCOMMON,global,class=COMMON,space=1,delta=1,noexec
     8                           	psect	bssBANK0,global,class=BANK0,space=1,delta=1,noexec
     9                           	psect	bssBANK1,global,class=BANK1,space=1,delta=1,noexec
    10                           	psect	dataBANK1,global,class=BANK1,space=1,delta=1,noexec
    11                           	psect	clrtext,global,class=CODE,space=0,delta=2
    12                           	psect	cstackBANK1,global,class=BANK1,space=1,delta=1,noexec
    13                           	psect	cstackCOMMON,global,class=COMMON,space=1,delta=1,noexec
    14                           	psect	cstackBANK0,global,class=BANK0,space=1,delta=1,noexec
    15                           	psect	maintext,global,class=CODE,space=0,split=1,delta=2
    16                           	psect	text1,local,class=CODE,space=0,merge=1,delta=2,group=3
    17                           	psect	text2,local,class=CODE,space=0,merge=1,delta=2,group=1
    18                           	psect	text3,local,class=CODE,space=0,merge=1,delta=2,group=1
    19                           	psect	text4,local,class=CODE,space=0,merge=1,delta=2,group=3
    20                           	psect	text5,local,class=CODE,space=0,merge=1,delta=2,group=3
    21                           	psect	text6,local,class=CODE,space=0,merge=1,delta=2,group=3
    22                           	psect	text7,local,class=CODE,space=0,merge=1,delta=2,group=2
    23                           	psect	text8,local,class=CODE,space=0,merge=1,delta=2,group=2
    24                           	psect	text9,local,class=CODE,space=0,merge=1,delta=2,group=2
    25                           	psect	text10,local,class=CODE,space=0,merge=1,delta=2,group=2
    26                           	psect	text11,local,class=CODE,space=0,merge=1,delta=2
    27                           	psect	text12,local,class=CODE,space=0,merge=1,delta=2
    28                           	psect	text13,local,class=CODE,space=0,merge=1,delta=2
    29                           	psect	text14,local,class=CODE,space=0,merge=1,delta=2
    30                           	psect	text15,local,class=CODE,space=0,merge=1,delta=2,group=2
    31                           	psect	text16,local,class=CODE,space=0,merge=1,delta=2
    32                           	psect	text17,local,class=CODE,space=0,merge=1,delta=2
    33                           	psect	text18,local,class=CODE,space=0,merge=1,delta=2
    34                           	psect	text19,local,class=CODE,space=0,merge=1,delta=2
    35                           	psect	text20,local,class=CODE,space=0,merge=1,delta=2
    36                           	psect	text21,local,class=CODE,space=0,merge=1,delta=2
    37                           	psect	text22,local,class=CODE,space=0,merge=1,delta=2
    38                           	psect	text23,local,class=CODE,space=0,merge=1,delta=2
    39                           	psect	text24,local,class=CODE,space=0,merge=1,delta=2
    40                           	psect	text25,local,class=CODE,space=0,merge=1,delta=2
    41                           	psect	text26,local,class=CODE,space=0,merge=1,delta=2
    42                           	psect	intentry,global,class=CODE,space=0,delta=2
    43                           	psect	config,global,abs,ovrld,class=CONFIG,space=4,delta=2,noexec
    44                           	dabs	1,0x7E,2
    45     0000                     
    46                           ; Version 2.20
    47                           ; Generated 12/02/2020 GMT
    48                           ; 
    49                           ; Copyright © 2020, Microchip Technology Inc. and its subsidiaries ("Microchip")
    50                           ; All rights reserved.
    51                           ; 
    52                           ; This software is developed by Microchip Technology Inc. and its subsidiaries ("Microch
      +                          ip").
    53                           ; 
    54                           ; Redistribution and use in source and binary forms, with or without modification, are
    55                           ; permitted provided that the following conditions are met:
    56                           ; 
    57                           ;     1. Redistributions of source code must retain the above copyright notice, this lis
      +                          t of
    58                           ;        conditions and the following disclaimer.
    59                           ; 
    60                           ;     2. Redistributions in binary form must reproduce the above copyright notice, this 
      +                          list
    61                           ;        of conditions and the following disclaimer in the documentation and/or other
    62                           ;        materials provided with the distribution.
    63                           ; 
    64                           ;     3. Microchip's name may not be used to endorse or promote products derived from th
      +                          is
    65                           ;        software without specific prior written permission.
    66                           ; 
    67                           ; THIS SOFTWARE IS PROVIDED BY MICROCHIP "AS IS" AND ANY EXPRESS OR IMPLIED WARRANTIES,
    68                           ; INCLUDING, BUT NOT LIMITED TO, THE IMPLIED WARRANTIES OF MERCHANTABILITY AND FITNESS F
      +                          OR
    69                           ; PURPOSE ARE DISCLAIMED.  IN NO EVENT SHALL MICROCHIP BE LIABLE FOR ANY DIRECT, INDIREC
      +                          T,
    70                           ; INCIDENTAL, SPECIAL, EXEMPLARY, OR CONSEQUENTIAL DAMAGES (INCLUDING BUT NOT LIMITED TO
    71                           ; PROCUREMENT OF SUBSTITUTE GOODS OR SERVICES; LOSS OF USE, DATA OR PROFITS; OR BUSINESS
    72                           ; INTERRUPTION) HOWSOEVER CAUSED AND ON ANY THEORY OF LIABILITY, WHETHER IN CONTRACT, ST
      +                          RICT
    73                           ; LIABILITY, OR TORT (INCLUDING NEGLIGENCE OR OTHERWISE) ARISING IN ANY WAY OUT OF THE U
      +                          SE OF
    74                           ; THIS SOFTWARE, EVEN IF ADVISED OF THE POSSIBILITY OF SUCH DAMAGE.
    75                           ; 
    76                           ; 
    77                           ; Code-generator required, PIC16F877A Definitions
    78                           ; 
    79                           ; SFR Addresses
    80     0004                     fsr             equ	4
    81     0004                     fsr0            equ	4
    82     0000                     indf            equ	0
    83     0000                     indf0           equ	0
    84     0002                     pc              equ	2
    85     0002                     pcl             equ	2
    86     000A                     pclath          equ	10
    87     0003                     status          equ	3
    88     0000                     INDF            equ	0	;# 
    89     0001                     TMR0            equ	1	;# 
    90     0002                     PCL             equ	2	;# 
    91     0003                     STATUS          equ	3	;# 
    92     0004                     FSR             equ	4	;# 
    93     0005                     PORTA           equ	5	;# 
    94     0006                     PORTB           equ	6	;# 
    95     0007                     PORTC           equ	7	;# 
    96     0008                     PORTD           equ	8	;# 
    97     0009                     PORTE           equ	9	;# 
    98     000A                     PCLATH          equ	10	;# 
    99     000B                     INTCON          equ	11	;# 
   100     000C                     PIR1            equ	12	;# 
   101     000D                     PIR2            equ	13	;# 
   102     000E                     TMR1            equ	14	;# 
   103     000E                     TMR1L           equ	14	;# 
   104     000F                     TMR1H           equ	15	;# 
   105     0010                     T1CON           equ	16	;# 
   106     0011                     TMR2            equ	17	;# 
   107     0012                     T2CON           equ	18	;# 
   108     0013                     SSPBUF          equ	19	;# 
   109     0014                     SSPCON          equ	20	;# 
   110     0015                     CCPR1           equ	21	;# 
   111     0015                     CCPR1L          equ	21	;# 
   112     0016                     CCPR1H          equ	22	;# 
   113     0017                     CCP1CON         equ	23	;# 
   114     0018                     RCSTA           equ	24	;# 
   115     0019                     TXREG           equ	25	;# 
   116     001A                     RCREG           equ	26	;# 
   117     001B                     CCPR2           equ	27	;# 
   118     001B                     CCPR2L          equ	27	;# 
   119     001C                     CCPR2H          equ	28	;# 
   120     001D                     CCP2CON         equ	29	;# 
   121     001E                     ADRESH          equ	30	;# 
   122     001F                     ADCON0          equ	31	;# 
   123     0081                     OPTION_REG      equ	129	;# 
   124     0085                     TRISA           equ	133	;# 
   125     0086                     TRISB           equ	134	;# 
   126     0087                     TRISC           equ	135	;# 
   127     0088                     TRISD           equ	136	;# 
   128     0089                     TRISE           equ	137	;# 
   129     008C                     PIE1            equ	140	;# 
   130     008D                     PIE2            equ	141	;# 
   131     008E                     PCON            equ	142	;# 
   132     0091                     SSPCON2         equ	145	;# 
   133     0092                     PR2             equ	146	;# 
   134     0093                     SSPADD          equ	147	;# 
   135     0094                     SSPSTAT         equ	148	;# 
   136     0098                     TXSTA           equ	152	;# 
   137     0099                     SPBRG           equ	153	;# 
   138     009C                     CMCON           equ	156	;# 
   139     009D                     CVRCON          equ	157	;# 
   140     009E                     ADRESL          equ	158	;# 
   141     009F                     ADCON1          equ	159	;# 
   142     010C                     EEDATA          equ	268	;# 
   143     010D                     EEADR           equ	269	;# 
   144     010E                     EEDATH          equ	270	;# 
   145     010F                     EEADRH          equ	271	;# 
   146     018C                     EECON1          equ	396	;# 
   147     018D                     EECON2          equ	397	;# 
   148     0000                     INDF            equ	0	;# 
   149     0001                     TMR0            equ	1	;# 
   150     0002                     PCL             equ	2	;# 
   151     0003                     STATUS          equ	3	;# 
   152     0004                     FSR             equ	4	;# 
   153     0005                     PORTA           equ	5	;# 
   154     0006                     PORTB           equ	6	;# 
   155     0007                     PORTC           equ	7	;# 
   156     0008                     PORTD           equ	8	;# 
   157     0009                     PORTE           equ	9	;# 
   158     000A                     PCLATH          equ	10	;# 
   159     000B                     INTCON          equ	11	;# 
   160     000C                     PIR1            equ	12	;# 
   161     000D                     PIR2            equ	13	;# 
   162     000E                     TMR1            equ	14	;# 
   163     000E                     TMR1L           equ	14	;# 
   164     000F                     TMR1H           equ	15	;# 
   165     0010                     T1CON           equ	16	;# 
   166     0011                     TMR2            equ	17	;# 
   167     0012                     T2CON           equ	18	;# 
   168     0013                     SSPBUF          equ	19	;# 
   169     0014                     SSPCON          equ	20	;# 
   170     0015                     CCPR1           equ	21	;# 
   171     0015                     CCPR1L          equ	21	;# 
   172     0016                     CCPR1H          equ	22	;# 
   173     0017                     CCP1CON         equ	23	;# 
   174     0018                     RCSTA           equ	24	;# 
   175     0019                     TXREG           equ	25	;# 
   176     001A                     RCREG           equ	26	;# 
   177     001B                     CCPR2           equ	27	;# 
   178     001B                     CCPR2L          equ	27	;# 
   179     001C                     CCPR2H          equ	28	;# 
   180     001D                     CCP2CON         equ	29	;# 
   181     001E                     ADRESH          equ	30	;# 
   182     001F                     ADCON0          equ	31	;# 
   183     0081                     OPTION_REG      equ	129	;# 
   184     0085                     TRISA           equ	133	;# 
   185     0086                     TRISB           equ	134	;# 
   186     0087                     TRISC           equ	135	;# 
   187     0088                     TRISD           equ	136	;# 
   188     0089                     TRISE           equ	137	;# 
   189     008C                     PIE1            equ	140	;# 
   190     008D                     PIE2            equ	141	;# 
   191     008E                     PCON            equ	142	;# 
   192     0091                     SSPCON2         equ	145	;# 
   193     0092                     PR2             equ	146	;# 
   194     0093                     SSPADD          equ	147	;# 
   195     0094                     SSPSTAT         equ	148	;# 
   196     0098                     TXSTA           equ	152	;# 
   197     0099                     SPBRG           equ	153	;# 
   198     009C                     CMCON           equ	156	;# 
   199     009D                     CVRCON          equ	157	;# 
   200     009E                     ADRESL          equ	158	;# 
   201     009F                     ADCON1          equ	159	;# 
   202     010C                     EEDATA          equ	268	;# 
   203     010D                     EEADR           equ	269	;# 
   204     010E                     EEDATH          equ	270	;# 
   205     010F                     EEADRH          equ	271	;# 
   206     018C                     EECON1          equ	396	;# 
   207     018D                     EECON2          equ	397	;# 
   208                           
   209                           	psect	idataBANK1
   210     07FB                     __pidataBANK1:
   211                           
   212                           ;initializer for _trancado
   213     07FB  3401               	retlw	1
   214     07FC  3400               	retlw	0
   215     000B                     _INTCONbits     set	11
   216     000E                     _TMR1L          set	14
   217     000F                     _TMR1H          set	15
   218     0010                     _T1CON          set	16
   219     001E                     _ADRESH         set	30
   220     001F                     _ADCON0         set	31
   221     001A                     _RCREG          set	26
   222     000C                     _PIR1bits       set	12
   223     0019                     _TXREG          set	25
   224     0018                     _RCSTAbits      set	24
   225     0030                     _RB0            set	48
   226     00FA                     _GO_nDONE       set	250
   227     0043                     _RD3            set	67
   228     0042                     _RD2            set	66
   229     0047                     _RD7            set	71
   230     0046                     _RD6            set	70
   231     0045                     _RD5            set	69
   232     0044                     _RD4            set	68
   233     0033                     _RB3            set	51
   234     0035                     _RB5            set	53
   235     0034                     _RB4            set	52
   236     0032                     _RB2            set	50
   237     0031                     _RB1            set	49
   238     0081                     _OPTION_REGbits set	129
   239     0086                     _TRISB          set	134
   240     0088                     _TRISD          set	136
   241     008C                     _PIE1bits       set	140
   242     009E                     _ADRESL         set	158
   243     009F                     _ADCON1         set	159
   244     0098                     _TXSTAbits      set	152
   245     0099                     _SPBRG          set	153
   246                           
   247                           	psect	strings
   248     040E                     __pstrings:
   249     040E                     stringtab:
   250     040E                     __stringtab:
   251                           
   252                           ;	String table - string pointers are 1 byte each
   253     040E  1BFF               	btfsc	btemp+1,7
   254     040F  2C18               	ljmp	stringcode
   255     0410  1383               	bcf	3,7
   256     0411  187F               	btfsc	btemp+1,0
   257     0412  1783               	bsf	3,7
   258     0413  0800               	movf	0,w
   259     0414  0A84               	incf	4,f
   260     0415  1903               	skipnz
   261     0416  0AFF               	incf	btemp+1,f
   262     0417  0008               	return
   263     0418                     stringcode:
   264     0418                     stringdir:
   265     0418  3004               	movlw	high stringdir
   266     0419  008A               	movwf	10
   267     041A  0804               	movf	4,w
   268     041B  0A84               	incf	4,f
   269     041C  0782               	addwf	2,f
   270     041D                     __stringbase:
   271     041D  3400               	retlw	0
   272     041E                     __end_of__stringtab:
   273     041E                     STR_13:
   274     041E  3421               	retlw	33	;'!'
   275     041F  3421               	retlw	33	;'!'
   276     0420  3420               	retlw	32	;' '
   277     0421  3446               	retlw	70	;'F'
   278     0422  3441               	retlw	65	;'A'
   279     0423  3454               	retlw	84	;'T'
   280     0424  3441               	retlw	65	;'A'
   281     0425  344C               	retlw	76	;'L'
   282     0426  3420               	retlw	32	;' '
   283     0427  3445               	retlw	69	;'E'
   284     0428  3452               	retlw	82	;'R'
   285     0429  3452               	retlw	82	;'R'
   286     042A  344F               	retlw	79	;'O'
   287     042B  3452               	retlw	82	;'R'
   288     042C  3420               	retlw	32	;' '
   289     042D  3421               	retlw	33	;'!'
   290     042E  3421               	retlw	33	;'!'
   291     042F  3400               	retlw	0
   292     0430                     STR_6:
   293     0430  3445               	retlw	69	;'E'
   294     0431  344E               	retlw	78	;'N'
   295     0432  3447               	retlw	71	;'G'
   296     0433  3449               	retlw	73	;'I'
   297     0434  344E               	retlw	78	;'N'
   298     0435  3445               	retlw	69	;'E'
   299     0436  3420               	retlw	32	;' '
   300     0437  344F               	retlw	79	;'O'
   301     0438  3446               	retlw	70	;'F'
   302     0439  3446               	retlw	70	;'F'
   303     043A  3420               	retlw	32	;' '
   304     043B  3420               	retlw	32	;' '
   305     043C  3420               	retlw	32	;' '
   306     043D  3420               	retlw	32	;' '
   307     043E  3420               	retlw	32	;' '
   308     043F  3420               	retlw	32	;' '
   309     0440  3400               	retlw	0
   310     0441                     STR_8:
   311     0441  3452               	retlw	82	;'R'
   312     0442  3445               	retlw	69	;'E'
   313     0443  344D               	retlw	77	;'M'
   314     0444  344F               	retlw	79	;'O'
   315     0445  3454               	retlw	84	;'T'
   316     0446  3445               	retlw	69	;'E'
   317     0447  3420               	retlw	32	;' '
   318     0448  344C               	retlw	76	;'L'
   319     0449  344F               	retlw	79	;'O'
   320     044A  3443               	retlw	67	;'C'
   321     044B  344B               	retlw	75	;'K'
   322     044C  3420               	retlw	32	;' '
   323     044D  3420               	retlw	32	;' '
   324     044E  3420               	retlw	32	;' '
   325     044F  3420               	retlw	32	;' '
   326     0450  3420               	retlw	32	;' '
   327     0451  3400               	retlw	0
   328     0452                     STR_5:
   329     0452  3456               	retlw	86	;'V'
   330     0453  3445               	retlw	69	;'E'
   331     0454  344C               	retlw	76	;'L'
   332     0455  343A               	retlw	58	;':'
   333     0456  3420               	retlw	32	;' '
   334     0457  3425               	retlw	37	;'%'
   335     0458  3464               	retlw	100	;'d'
   336     0459  3420               	retlw	32	;' '
   337     045A  344B               	retlw	75	;'K'
   338     045B  346D               	retlw	109	;'m'
   339     045C  342F               	retlw	47	;'/'
   340     045D  3468               	retlw	104	;'h'
   341     045E  3420               	retlw	32	;' '
   342     045F  3420               	retlw	32	;' '
   343     0460  3420               	retlw	32	;' '
   344     0461  3420               	retlw	32	;' '
   345     0462  3400               	retlw	0
   346     0463                     STR_7:
   347     0463  3452               	retlw	82	;'R'
   348     0464  3445               	retlw	69	;'E'
   349     0465  344D               	retlw	77	;'M'
   350     0466  344F               	retlw	79	;'O'
   351     0467  3454               	retlw	84	;'T'
   352     0468  3445               	retlw	69	;'E'
   353     0469  3420               	retlw	32	;' '
   354     046A  3455               	retlw	85	;'U'
   355     046B  344E               	retlw	78	;'N'
   356     046C  344C               	retlw	76	;'L'
   357     046D  344F               	retlw	79	;'O'
   358     046E  3443               	retlw	67	;'C'
   359     046F  344B               	retlw	75	;'K'
   360     0470  3420               	retlw	32	;' '
   361     0471  3420               	retlw	32	;' '
   362     0472  3420               	retlw	32	;' '
   363     0473  3400               	retlw	0
   364     0474                     STR_1:
   365     0474  3453               	retlw	83	;'S'
   366     0475  3454               	retlw	84	;'T'
   367     0476  3441               	retlw	65	;'A'
   368     0477  3454               	retlw	84	;'T'
   369     0478  3455               	retlw	85	;'U'
   370     0479  3453               	retlw	83	;'S'
   371     047A  343A               	retlw	58	;':'
   372     047B  3420               	retlw	32	;' '
   373     047C  344C               	retlw	76	;'L'
   374     047D  344F               	retlw	79	;'O'
   375     047E  3443               	retlw	67	;'C'
   376     047F  344B               	retlw	75	;'K'
   377     0480  3445               	retlw	69	;'E'
   378     0481  3444               	retlw	68	;'D'
   379     0482  3420               	retlw	32	;' '
   380     0483  3420               	retlw	32	;' '
   381     0484  3400               	retlw	0
   382     0485                     STR_3:
   383     0485  3453               	retlw	83	;'S'
   384     0486  3454               	retlw	84	;'T'
   385     0487  3441               	retlw	65	;'A'
   386     0488  3454               	retlw	84	;'T'
   387     0489  3455               	retlw	85	;'U'
   388     048A  3453               	retlw	83	;'S'
   389     048B  343A               	retlw	58	;':'
   390     048C  3420               	retlw	32	;' '
   391     048D  3455               	retlw	85	;'U'
   392     048E  344E               	retlw	78	;'N'
   393     048F  344C               	retlw	76	;'L'
   394     0490  344F               	retlw	79	;'O'
   395     0491  3443               	retlw	67	;'C'
   396     0492  344B               	retlw	75	;'K'
   397     0493  3445               	retlw	69	;'E'
   398     0494  3444               	retlw	68	;'D'
   399     0495  3400               	retlw	0
   400     0496                     STR_11:
   401     0496  3443               	retlw	67	;'C'
   402     0497  3452               	retlw	82	;'R'
   403     0498  3449               	retlw	73	;'I'
   404     0499  3454               	retlw	84	;'T'
   405     049A  3449               	retlw	73	;'I'
   406     049B  3443               	retlw	67	;'C'
   407     049C  3441               	retlw	65	;'A'
   408     049D  344C               	retlw	76	;'L'
   409     049E  3420               	retlw	32	;' '
   410     049F  3446               	retlw	70	;'F'
   411     04A0  3441               	retlw	65	;'A'
   412     04A1  3449               	retlw	73	;'I'
   413     04A2  344C               	retlw	76	;'L'
   414     04A3  3421               	retlw	33	;'!'
   415     04A4  3400               	retlw	0
   416     04A5                     STR_10:
   417     04A5  3457               	retlw	87	;'W'
   418     04A6  3444               	retlw	68	;'D'
   419     04A7  3454               	retlw	84	;'T'
   420     04A8  3420               	retlw	32	;' '
   421     04A9  3452               	retlw	82	;'R'
   422     04AA  3445               	retlw	69	;'E'
   423     04AB  3443               	retlw	67	;'C'
   424     04AC  344F               	retlw	79	;'O'
   425     04AD  3456               	retlw	86	;'V'
   426     04AE  3445               	retlw	69	;'E'
   427     04AF  3452               	retlw	82	;'R'
   428     04B0  342E               	retlw	46	;'.'
   429     04B1  342E               	retlw	46	;'.'
   430     04B2  342E               	retlw	46	;'.'
   431     04B3  3400               	retlw	0
   432     04B4                     STR_9:
   433     04B4  3442               	retlw	66	;'B'
   434     04B5  3455               	retlw	85	;'U'
   435     04B6  3453               	retlw	83	;'S'
   436     04B7  3420               	retlw	32	;' '
   437     04B8  3457               	retlw	87	;'W'
   438     04B9  3441               	retlw	65	;'A'
   439     04BA  3452               	retlw	82	;'R'
   440     04BB  344E               	retlw	78	;'N'
   441     04BC  3449               	retlw	73	;'I'
   442     04BD  344E               	retlw	78	;'N'
   443     04BE  3447               	retlw	71	;'G'
   444     04BF  3421               	retlw	33	;'!'
   445     04C0  3400               	retlw	0
   446     04C1                     STR_4:
   447     04C1  3423               	retlw	35	;'#'
   448     04C2  3431               	retlw	49	;'1'
   449     04C3  3430               	retlw	48	;'0'
   450     04C4  3430               	retlw	48	;'0'
   451     04C5  343A               	retlw	58	;':'
   452     04C6  3425               	retlw	37	;'%'
   453     04C7  3464               	retlw	100	;'d'
   454     04C8  3424               	retlw	36	;'$'
   455     04C9  3400               	retlw	0
   456     04A5                     STR_12          equ	STR_10
   457     0474                     STR_2           equ	STR_1
   458                           
   459                           	psect	cinit
   460     0011                     start_initialization:	
   461                           ; #config settings
   462                           
   463     0011                     __initialization:
   464                           
   465                           ; Initialize objects allocated to BANK1
   466     0011  1683               	bsf	3,5	;RP0=1, select bank1
   467     0012  1303               	bcf	3,6	;RP1=0, select bank1
   468     0013  120A  118A  27FB  120A  118A  	fcall	__pidataBANK1	;fetch initializer
   469     0018  00EA               	movwf	__pdataBANK1& (0+127)
   470     0019  120A  118A  27FC  120A  118A  	fcall	__pidataBANK1+1	;fetch initializer
   471     001E  00EB               	movwf	(__pdataBANK1+1)& (0+127)
   472                           
   473                           ; Clear objects allocated to BANK1
   474     001F  1383               	bcf	3,7	;select IRP bank0
   475     0020  30C6               	movlw	low __pbssBANK1
   476     0021  0084               	movwf	4
   477     0022  30EA               	movlw	low (__pbssBANK1+36)
   478     0023  120A  158A  25F7  120A  118A  	fcall	clear_ram0
   479                           
   480                           ; Clear objects allocated to BANK0
   481     0028  304F               	movlw	low __pbssBANK0
   482     0029  0084               	movwf	4
   483     002A  306A               	movlw	low (__pbssBANK0+27)
   484     002B  120A  158A  25F7  120A  118A  	fcall	clear_ram0
   485                           
   486                           ; Clear objects allocated to COMMON
   487     0030  01F9               	clrf	__pbssCOMMON& (0+127)
   488     0031  01FA               	clrf	(__pbssCOMMON+1)& (0+127)
   489     0032                     end_of_initialization:	
   490                           ;End of C runtime variable initialization code
   491                           
   492     0032                     __end_of__initialization:
   493     0032  0183               	clrf	3
   494     0033  120A  118A  2836   	ljmp	_main	;jump to C main() function
   495                           
   496                           	psect	bssCOMMON
   497     0079                     __pbssCOMMON:
   498     0079                     _contagem_tempo:
   499     0079                     	ds	2
   500                           
   501                           	psect	bssBANK0
   502     004F                     __pbssBANK0:
   503     004F                     _buffer:
   504     004F                     	ds	20
   505     0063                     _width:
   506     0063                     	ds	2
   507     0065                     _prec:
   508     0065                     	ds	2
   509     0067                     _modo_hack:
   510     0067                     	ds	2
   511     0069                     _flags:
   512     0069                     	ds	1
   513                           
   514                           	psect	bssBANK1
   515     00C6                     __pbssBANK1:
   516     00C6                     _dbuf:
   517     00C6                     	ds	32
   518     00E6                     _flag_enviar_dados:
   519     00E6                     	ds	2
   520     00E8                     _kmh_simulado:
   521     00E8                     	ds	2
   522                           
   523                           	psect	dataBANK1
   524     00EA                     __pdataBANK1:
   525     00EA                     _trancado:
   526     00EA                     	ds	2
   527                           
   528                           	psect	clrtext
   529     0DF7                     clear_ram0:	
   530                           ;	Called with FSR containing the base address, and
   531                           ;	W with the last address+1
   532                           
   533     0DF7  0064               	clrwdt	;clear the watchdog before getting into this loop
   534     0DF8                     clrloop0:
   535     0DF8  0180               	clrf	0	;clear RAM location pointed to by FSR
   536     0DF9  0A84               	incf	4,f	;increment pointer
   537     0DFA  0604               	xorwf	4,w	;XOR with final address
   538     0DFB  1903               	btfsc	3,2	;have we reached the end yet?
   539     0DFC  3400               	retlw	0	;all done for this memory range, return
   540     0DFD  0604               	xorwf	4,w	;XOR again to restore value
   541     0DFE  2DF8               	goto	clrloop0	;do the next byte
   542                           
   543                           	psect	cstackBANK1
   544     00A0                     __pcstackBANK1:
   545     00A0                     main@s:
   546                           
   547                           ; 16 bytes @ 0x0
   548     00A0                     	ds	16
   549     00B0                     main@pkt:
   550                           
   551                           ; 15 bytes @ 0x10
   552     00B0                     	ds	15
   553     00BF                     main@pot:
   554                           
   555                           ; 2 bytes @ 0x1F
   556     00BF                     	ds	2
   557     00C1                     main@k:
   558                           
   559                           ; 2 bytes @ 0x21
   560     00C1                     	ds	2
   561     00C3                     main@k_361:
   562                           
   563                           ; 2 bytes @ 0x23
   564     00C3                     	ds	2
   565     00C5                     main@c:
   566                           
   567                           ; 1 bytes @ 0x25
   568     00C5                     	ds	1
   569                           
   570                           	psect	cstackCOMMON
   571     0070                     __pcstackCOMMON:
   572     0070                     ?_putch:
   573     0070                     ?_Leds_Off:	
   574                           ; 1 bytes @ 0x0
   575                           
   576     0070                     ?_Lcd_Port:	
   577                           ; 1 bytes @ 0x0
   578                           
   579     0070                     ?_Lcd_Cmd:	
   580                           ; 1 bytes @ 0x0
   581                           
   582     0070                     ?_Lcd_Clear:	
   583                           ; 1 bytes @ 0x0
   584                           
   585     0070                     ?_Lcd_Init:	
   586                           ; 1 bytes @ 0x0
   587                           
   588     0070                     ?_UART_Write:	
   589                           ; 1 bytes @ 0x0
   590                           
   591     0070                     ?_UART_Read:	
   592                           ; 1 bytes @ 0x0
   593                           
   594     0070                     ?_ADC_Init:	
   595                           ; 1 bytes @ 0x0
   596                           
   597     0070                     ?_Timer1_Init:	
   598                           ; 1 bytes @ 0x0
   599                           
   600     0070                     ?_ISR:	
   601                           ; 1 bytes @ 0x0
   602                           
   603     0070                     ?_main:	
   604                           ; 1 bytes @ 0x0
   605                           
   606     0070                     putch@c:	
   607                           ; 1 bytes @ 0x0
   608                           
   609     0070                     ??_ISR:	
   610                           ; 1 bytes @ 0x0
   611                           
   612                           
   613                           ; 1 bytes @ 0x0
   614     0070                     	ds	3
   615     0073                     ?_fputc:
   616     0073                     ?_ADC_Read:	
   617                           ; 2 bytes @ 0x3
   618                           
   619     0073                     ?___awdiv:	
   620                           ; 2 bytes @ 0x3
   621                           
   622     0073                     ?___awmod:	
   623                           ; 2 bytes @ 0x3
   624                           
   625     0073                     Lcd_Port@a:	
   626                           ; 2 bytes @ 0x3
   627                           
   628     0073                     UART_Write@d:	
   629                           ; 1 bytes @ 0x3
   630                           
   631     0073                     ___awdiv@divisor:	
   632                           ; 1 bytes @ 0x3
   633                           
   634     0073                     ___awmod@divisor:	
   635                           ; 2 bytes @ 0x3
   636                           
   637     0073                     fputc@c:	
   638                           ; 2 bytes @ 0x3
   639                           
   640     0073                     ??_putch:	
   641                           ; 2 bytes @ 0x3
   642                           
   643     0073                     ??_Leds_Off:	
   644                           ; 1 bytes @ 0x3
   645                           
   646     0073                     ??_Lcd_Port:	
   647                           ; 1 bytes @ 0x3
   648                           
   649     0073                     ??_UART_Write:	
   650                           ; 1 bytes @ 0x3
   651                           
   652     0073                     ??_UART_Read:	
   653                           ; 1 bytes @ 0x3
   654                           
   655     0073                     ??_ADC_Init:	
   656                           ; 1 bytes @ 0x3
   657                           
   658     0073                     ??_Timer1_Init:	
   659                           ; 1 bytes @ 0x3
   660                           
   661     0073                     ??___lmul:	
   662                           ; 1 bytes @ 0x3
   663                           
   664     0073                     ??___aldiv:	
   665                           ; 1 bytes @ 0x3
   666                           
   667                           
   668                           ; 1 bytes @ 0x3
   669     0073                     	ds	1
   670     0074                     ?_Lcd_Write_String:
   671     0074                     ?_UART_Write_String:	
   672                           ; 1 bytes @ 0x4
   673                           
   674     0074                     UART_Write_String@s:	
   675                           ; 1 bytes @ 0x4
   676                           
   677     0074                     Lcd_Write_String@a:	
   678                           ; 1 bytes @ 0x4
   679                           
   680     0074                     ___lmul@product:	
   681                           ; 2 bytes @ 0x4
   682                           
   683     0074                     ??_Lcd_Cmd:	
   684                           ; 4 bytes @ 0x4
   685                           
   686     0074                     ??_UART_Init:	
   687                           ; 1 bytes @ 0x4
   688                           
   689                           
   690                           ; 1 bytes @ 0x4
   691     0074                     	ds	1
   692     0075                     ___awdiv@dividend:
   693     0075                     ___awmod@dividend:	
   694                           ; 2 bytes @ 0x5
   695                           
   696     0075                     fputc@fp:	
   697                           ; 2 bytes @ 0x5
   698                           
   699     0075                     ??_UART_Write_String:	
   700                           ; 2 bytes @ 0x5
   701                           
   702     0075                     ??_ADC_Read:	
   703                           ; 1 bytes @ 0x5
   704                           
   705                           
   706                           ; 1 bytes @ 0x5
   707     0075                     	ds	1
   708     0076                     Lcd_Cmd@a:
   709     0076                     ??_Lcd_Write_String:	
   710                           ; 1 bytes @ 0x6
   711                           
   712                           
   713                           ; 1 bytes @ 0x6
   714     0076                     	ds	1
   715     0077                     ?_Lcd_Set_Cursor:
   716     0077                     Lcd_Set_Cursor@b:	
   717                           ; 1 bytes @ 0x7
   718                           
   719     0077                     ___awmod@counter:	
   720                           ; 1 bytes @ 0x7
   721                           
   722     0077                     ??_Lcd_Clear:	
   723                           ; 1 bytes @ 0x7
   724                           
   725     0077                     ??_Lcd_Init:	
   726                           ; 1 bytes @ 0x7
   727                           
   728     0077                     ??___awdiv:	
   729                           ; 1 bytes @ 0x7
   730                           
   731     0077                     ??___awmod:	
   732                           ; 1 bytes @ 0x7
   733                           
   734                           
   735                           ; 1 bytes @ 0x7
   736     0077                     	ds	1
   737     0078                     ___awmod@sign:
   738     0078                     ??_Lcd_Set_Cursor:	
   739                           ; 1 bytes @ 0x8
   740                           
   741     0078                     ??___lldiv:	
   742                           ; 1 bytes @ 0x8
   743                           
   744                           
   745                           ; 1 bytes @ 0x8
   746     0078                     	ds	1
   747     0079                     ??_vfprintf:
   748                           
   749                           	psect	cstackBANK0
   750     0020                     __pcstackBANK0:	
   751                           ; 1 bytes @ 0x9
   752                           
   753     0020                     ?_abs:
   754     0020                     ?___lmul:	
   755                           ; 2 bytes @ 0x0
   756                           
   757     0020                     ?___aldiv:	
   758                           ; 4 bytes @ 0x0
   759                           
   760     0020                     Lcd_Set_Cursor@a:	
   761                           ; 4 bytes @ 0x0
   762                           
   763     0020                     Lcd_Write_String@t:	
   764                           ; 1 bytes @ 0x0
   765                           
   766     0020                     ___awdiv@counter:	
   767                           ; 1 bytes @ 0x0
   768                           
   769     0020                     abs@a:	
   770                           ; 1 bytes @ 0x0
   771                           
   772     0020                     ___lmul@multiplier:	
   773                           ; 2 bytes @ 0x0
   774                           
   775     0020                     ___aldiv@divisor:	
   776                           ; 4 bytes @ 0x0
   777                           
   778     0020                     ??_fputc:	
   779                           ; 4 bytes @ 0x0
   780                           
   781                           
   782                           ; 1 bytes @ 0x0
   783     0020                     	ds	1
   784     0021                     Lcd_Set_Cursor@z:
   785     0021                     Lcd_Write_String@y:	
   786                           ; 1 bytes @ 0x1
   787                           
   788     0021                     ___awdiv@sign:	
   789                           ; 1 bytes @ 0x1
   790                           
   791                           
   792                           ; 1 bytes @ 0x1
   793     0021                     	ds	1
   794     0022                     Lcd_Set_Cursor@y:
   795     0022                     Lcd_Write_String@i:	
   796                           ; 1 bytes @ 0x2
   797                           
   798     0022                     ___awdiv@quotient:	
   799                           ; 2 bytes @ 0x2
   800                           
   801     0022                     ??_abs:	
   802                           ; 2 bytes @ 0x2
   803                           
   804                           
   805                           ; 1 bytes @ 0x2
   806     0022                     	ds	1
   807     0023                     Lcd_Set_Cursor@t:
   808                           
   809                           ; 1 bytes @ 0x3
   810     0023                     	ds	1
   811     0024                     ___lmul@multiplicand:
   812     0024                     ___aldiv@dividend:	
   813                           ; 4 bytes @ 0x4
   814                           
   815                           
   816                           ; 4 bytes @ 0x4
   817     0024                     	ds	4
   818     0028                     ?___lldiv:
   819     0028                     ___aldiv@counter:	
   820                           ; 4 bytes @ 0x8
   821                           
   822     0028                     ___lldiv@divisor:	
   823                           ; 1 bytes @ 0x8
   824                           
   825                           
   826                           ; 4 bytes @ 0x8
   827     0028                     	ds	1
   828     0029                     ?_vfpfcnvrt:
   829     0029                     ___aldiv@sign:	
   830                           ; 1 bytes @ 0x9
   831                           
   832     0029                     vfpfcnvrt@fp:	
   833                           ; 1 bytes @ 0x9
   834                           
   835                           
   836                           ; 2 bytes @ 0x9
   837     0029                     	ds	1
   838     002A                     ___aldiv@quotient:
   839                           
   840                           ; 4 bytes @ 0xA
   841     002A                     	ds	1
   842     002B                     vfpfcnvrt@fmt:
   843                           
   844                           ; 1 bytes @ 0xB
   845     002B                     	ds	1
   846     002C                     vfpfcnvrt@ap:
   847     002C                     ___lldiv@dividend:	
   848                           ; 1 bytes @ 0xC
   849                           
   850                           
   851                           ; 4 bytes @ 0xC
   852     002C                     	ds	1
   853     002D                     ??_vfpfcnvrt:
   854                           
   855                           ; 1 bytes @ 0xD
   856     002D                     	ds	1
   857     002E                     ?_UART_Init:
   858     002E                     UART_Init@baud:	
   859                           ; 1 bytes @ 0xE
   860                           
   861                           
   862                           ; 4 bytes @ 0xE
   863     002E                     	ds	1
   864     002F                     vfpfcnvrt@done:
   865                           
   866                           ; 1 bytes @ 0xF
   867     002F                     	ds	1
   868     0030                     vfpfcnvrt@cp:
   869     0030                     ___lldiv@quotient:	
   870                           ; 1 bytes @ 0x10
   871                           
   872                           
   873                           ; 4 bytes @ 0x10
   874     0030                     	ds	1
   875     0031                     vfpfcnvrt@convarg:
   876                           
   877                           ; 4 bytes @ 0x11
   878     0031                     	ds	3
   879     0034                     ___lldiv@counter:
   880                           
   881                           ; 1 bytes @ 0x14
   882     0034                     	ds	1
   883     0035                     vfpfcnvrt@c:
   884                           
   885                           ; 1 bytes @ 0x15
   886     0035                     	ds	1
   887     0036                     ?_vfprintf:
   888     0036                     vfprintf@fp:	
   889                           ; 2 bytes @ 0x16
   890                           
   891                           
   892                           ; 2 bytes @ 0x16
   893     0036                     	ds	2
   894     0038                     vfprintf@fmt:
   895                           
   896                           ; 1 bytes @ 0x18
   897     0038                     	ds	1
   898     0039                     vfprintf@ap:
   899                           
   900                           ; 1 bytes @ 0x19
   901     0039                     	ds	1
   902     003A                     vfprintf@cfmt:
   903                           
   904                           ; 1 bytes @ 0x1A
   905     003A                     	ds	1
   906     003B                     ?_sprintf:
   907     003B                     sprintf@s:	
   908                           ; 2 bytes @ 0x1B
   909                           
   910                           
   911                           ; 1 bytes @ 0x1B
   912     003B                     	ds	1
   913     003C                     sprintf@fmt:
   914                           
   915                           ; 1 bytes @ 0x1C
   916     003C                     	ds	3
   917     003F                     ??_sprintf:
   918                           
   919                           ; 1 bytes @ 0x1F
   920     003F                     	ds	1
   921     0040                     sprintf@ap:
   922                           
   923                           ; 1 bytes @ 0x20
   924     0040                     	ds	1
   925     0041                     sprintf@f:
   926                           
   927                           ; 11 bytes @ 0x21
   928     0041                     	ds	11
   929     004C                     ??_main:
   930                           
   931                           ; 1 bytes @ 0x2C
   932     004C                     	ds	3
   933                           
   934                           	psect	maintext
   935     0036                     __pmaintext:	
   936 ;;
   937 ;;Main: autosize = 0, tempsize = 3, incstack = 0, save=0
   938 ;;
   939 ;; *************** function _main *****************
   940 ;; Defined at:
   941 ;;		line 68 in file "victim.c"
   942 ;; Parameters:    Size  Location     Type
   943 ;;		None
   944 ;; Auto vars:     Size  Location     Type
   945 ;;  k               2   35[BANK1 ] int 
   946 ;;  k               2   33[BANK1 ] int 
   947 ;;  s              16    0[BANK1 ] unsigned char [16]
   948 ;;  pkt            15   16[BANK1 ] unsigned char [15]
   949 ;;  c               1   37[BANK1 ] unsigned char 
   950 ;;  pot             2   31[BANK1 ] int 
   951 ;; Return value:  Size  Location     Type
   952 ;;                  1    wreg      void 
   953 ;; Registers used:
   954 ;;		wreg, fsr0l, fsr0h, status,2, status,0, pclath, btemp1, cstack
   955 ;; Tracked objects:
   956 ;;		On entry : B00/0
   957 ;;		On exit  : 0/0
   958 ;;		Unchanged: 0/0
   959 ;; Data sizes:     COMMON   BANK0   BANK1   BANK3   BANK2
   960 ;;      Params:         0       0       0       0       0
   961 ;;      Locals:         0       0      38       0       0
   962 ;;      Temps:          0       3       0       0       0
   963 ;;      Totals:         0       3      38       0       0
   964 ;;Total ram usage:       41 bytes
   965 ;; Hardware stack levels required when called: 6
   966 ;; This function calls:
   967 ;;		_ADC_Init
   968 ;;		_ADC_Read
   969 ;;		_Lcd_Clear
   970 ;;		_Lcd_Init
   971 ;;		_Lcd_Set_Cursor
   972 ;;		_Lcd_Write_String
   973 ;;		_Leds_Off
   974 ;;		_Timer1_Init
   975 ;;		_UART_Init
   976 ;;		_UART_Read
   977 ;;		_UART_Write
   978 ;;		_UART_Write_String
   979 ;;		___lldiv
   980 ;;		___lmul
   981 ;;		_sprintf
   982 ;; This function is called by:
   983 ;;		Startup code after reset
   984 ;; This function uses a non-reentrant model
   985 ;;
   986                           
   987     0036                     _main:	
   988                           ;psect for function _main
   989                           
   990     0036                     l2197:	
   991                           ;incstack = 0
   992                           ; Regs used in _main: [wreg-fsr0h+status,2+status,0+pclath+btemp1+cstack]
   993                           
   994                           
   995                           ;victim.c: 70:     TRISD=0;
   996     0036  1683               	bsf	3,5	;RP0=1, select bank1
   997     0037  1303               	bcf	3,6	;RP1=0, select bank1
   998     0038  0188               	clrf	8	;volatile
   999     0039                     l2199:
  1000                           
  1001                           ;victim.c: 71:     TRISB=0b00000001;
  1002     0039  3001               	movlw	1
  1003     003A  0086               	movwf	6	;volatile
  1004     003B                     l2201:
  1005                           
  1006                           ;victim.c: 72:     OPTION_REGbits.nRBPU=0;
  1007     003B  1381               	bcf	1,7	;volatile
  1008     003C                     l2203:
  1009                           
  1010                           ;victim.c: 74:     Leds_Off();
  1011     003C  120A  158A  25EF  120A  118A  	fcall	_Leds_Off
  1012     0041                     l2205:
  1013                           
  1014                           ;victim.c: 75:     RB5 = 1;
  1015     0041  1283               	bcf	3,5	;RP0=0, select bank0
  1016     0042  1303               	bcf	3,6	;RP1=0, select bank0
  1017     0043  1686               	bsf	6,5	;volatile
  1018     0044                     l2207:
  1019                           
  1020                           ;victim.c: 77:     UART_Init(9600);
  1021     0044  3000               	movlw	0
  1022     0045  00B1               	movwf	UART_Init@baud+3
  1023     0046  3000               	movlw	0
  1024     0047  00B0               	movwf	UART_Init@baud+2
  1025     0048  3025               	movlw	37
  1026     0049  00AF               	movwf	UART_Init@baud+1
  1027     004A  3080               	movlw	128
  1028     004B  00AE               	movwf	UART_Init@baud
  1029     004C  120A  158A  272B  120A  118A  	fcall	_UART_Init
  1030     0051                     l2209:
  1031                           
  1032                           ;victim.c: 78:     Lcd_Init();
  1033     0051  120A  118A  2755  120A  118A  	fcall	_Lcd_Init
  1034     0056                     l2211:
  1035                           
  1036                           ;victim.c: 79:     Lcd_Clear();
  1037     0056  120A  158A  2608  120A  118A  	fcall	_Lcd_Clear
  1038     005B                     l2213:
  1039                           
  1040                           ;victim.c: 80:     ADC_Init();
  1041     005B  120A  158A  25FF  120A  118A  	fcall	_ADC_Init
  1042     0060                     l2215:
  1043                           
  1044                           ;victim.c: 81:     Timer1_Init();
  1045     0060  120A  158A  2615  120A  118A  	fcall	_Timer1_Init
  1046     0065                     l2217:
  1047                           
  1048                           ;victim.c: 83:     Lcd_Set_Cursor(1,1);
  1049     0065  01F7               	clrf	Lcd_Set_Cursor@b
  1050     0066  0AF7               	incf	Lcd_Set_Cursor@b,f
  1051     0067  3001               	movlw	1
  1052     0068  120A  158A  2761  120A  118A  	fcall	_Lcd_Set_Cursor
  1053     006D                     l2219:
  1054                           
  1055                           ;victim.c: 84:     Lcd_Write_String("STATUS: LOCKED  ");
  1056     006D  3057               	movlw	(low ((STR_1-__stringbase)| (0+32768)))& (0+255)
  1057     006E  00F4               	movwf	Lcd_Write_String@a
  1058     006F  3080               	movlw	128
  1059     0070  00F5               	movwf	Lcd_Write_String@a+1
  1060     0071  120A  118A  2603  120A  118A  	fcall	_Lcd_Write_String
  1061     0076                     l158:	
  1062                           ;victim.c: 86:     while(1){
  1063                           
  1064     0076  0064               	clrwdt	;# 
  1065     0077                     l2221:
  1066                           
  1067                           ;victim.c: 90:         if(RB0==0){
  1068     0077  1283               	bcf	3,5	;RP0=0, select bank0
  1069     0078  1303               	bcf	3,6	;RP1=0, select bank0
  1070     0079  1806               	btfsc	6,0	;volatile
  1071     007A  287C               	goto	u2341
  1072     007B  287D               	goto	u2340
  1073     007C                     u2341:
  1074     007C  28F6               	goto	l2249
  1075     007D                     u2340:
  1076     007D                     l2223:
  1077                           
  1078                           ;victim.c: 91:             _delay((unsigned long)((150)*(20000000/4000.0)));
  1079     007D  3004               	movlw	4
  1080     007E  1283               	bcf	3,5	;RP0=0, select bank0
  1081     007F  1303               	bcf	3,6	;RP1=0, select bank0
  1082     0080  00CE               	movwf	??_main+2
  1083     0081  30CF               	movlw	207
  1084     0082  00CD               	movwf	??_main+1
  1085     0083  3001               	movlw	1
  1086     0084  00CC               	movwf	??_main
  1087     0085                     u2507:
  1088     0085  0BCC               	decfsz	??_main,f
  1089     0086  2885               	goto	u2507
  1090     0087  0BCD               	decfsz	??_main+1,f
  1091     0088  2885               	goto	u2507
  1092     0089  0BCE               	decfsz	??_main+2,f
  1093     008A  2885               	goto	u2507
  1094     008B                     l2225:
  1095                           
  1096                           ;victim.c: 92:             if(RB0==0){
  1097     008B  1283               	bcf	3,5	;RP0=0, select bank0
  1098     008C  1303               	bcf	3,6	;RP1=0, select bank0
  1099     008D  1806               	btfsc	6,0	;volatile
  1100     008E  2890               	goto	u2351
  1101     008F  2891               	goto	u2350
  1102     0090                     u2351:
  1103     0090  28F6               	goto	l2249
  1104     0091                     u2350:
  1105     0091                     l2227:
  1106                           
  1107                           ;victim.c: 93:                 trancado = !trancado;
  1108     0091  1683               	bsf	3,5	;RP0=1, select bank1
  1109     0092  1303               	bcf	3,6	;RP1=0, select bank1
  1110     0093  086A               	movf	_trancado^(0+128),w
  1111     0094  046B               	iorwf	(_trancado+1)^(0+128),w
  1112     0095  1903               	btfsc	3,2
  1113     0096  2898               	goto	u2361
  1114     0097  289A               	goto	u2360
  1115     0098                     u2361:
  1116     0098  3001               	movlw	1
  1117     0099  289B               	goto	u2370
  1118     009A                     u2360:
  1119     009A  3000               	movlw	0
  1120     009B                     u2370:
  1121     009B  1283               	bcf	3,5	;RP0=0, select bank0
  1122     009C  1303               	bcf	3,6	;RP1=0, select bank0
  1123     009D  00CC               	movwf	??_main
  1124     009E  01CD               	clrf	??_main+1
  1125     009F  084C               	movf	??_main,w
  1126     00A0  1683               	bsf	3,5	;RP0=1, select bank1
  1127     00A1  1303               	bcf	3,6	;RP1=0, select bank1
  1128     00A2  00EA               	movwf	_trancado^(0+128)
  1129     00A3  1283               	bcf	3,5	;RP0=0, select bank0
  1130     00A4  1303               	bcf	3,6	;RP1=0, select bank0
  1131     00A5  084D               	movf	??_main+1,w
  1132     00A6  1683               	bsf	3,5	;RP0=1, select bank1
  1133     00A7  1303               	bcf	3,6	;RP1=0, select bank1
  1134     00A8  00EB               	movwf	(_trancado+1)^(0+128)
  1135                           
  1136                           ;victim.c: 94:                 if(trancado){
  1137     00A9  086A               	movf	_trancado^(0+128),w
  1138     00AA  046B               	iorwf	(_trancado+1)^(0+128),w
  1139     00AB  1903               	btfsc	3,2
  1140     00AC  28AE               	goto	u2381
  1141     00AD  28AF               	goto	u2380
  1142     00AE                     u2381:
  1143     00AE  28CF               	goto	l2239
  1144     00AF                     u2380:
  1145     00AF                     l2229:
  1146                           
  1147                           ;victim.c: 95:                     Leds_Off(); RB5=1;
  1148     00AF  120A  158A  25EF  120A  118A  	fcall	_Leds_Off
  1149     00B4                     l2231:
  1150     00B4  1283               	bcf	3,5	;RP0=0, select bank0
  1151     00B5  1303               	bcf	3,6	;RP1=0, select bank0
  1152     00B6  1686               	bsf	6,5	;volatile
  1153     00B7                     l2233:
  1154                           
  1155                           ;victim.c: 96:                     Lcd_Set_Cursor(1,1);
  1156     00B7  01F7               	clrf	Lcd_Set_Cursor@b
  1157     00B8  0AF7               	incf	Lcd_Set_Cursor@b,f
  1158     00B9  3001               	movlw	1
  1159     00BA  120A  158A  2761  120A  118A  	fcall	_Lcd_Set_Cursor
  1160     00BF                     l2235:
  1161                           
  1162                           ;victim.c: 97:                     Lcd_Write_String("STATUS: LOCKED  ");
  1163     00BF  3057               	movlw	(low ((STR_1-__stringbase)| (0+32768)))& (0+255)
  1164     00C0  00F4               	movwf	Lcd_Write_String@a
  1165     00C1  3080               	movlw	128
  1166     00C2  00F5               	movwf	Lcd_Write_String@a+1
  1167     00C3  120A  118A  2603  120A  118A  	fcall	_Lcd_Write_String
  1168     00C8                     l2237:
  1169                           
  1170                           ;victim.c: 98:                     UART_Write('l');
  1171     00C8  306C               	movlw	108
  1172     00C9  120A  158A  2623  120A  118A  	fcall	_UART_Write
  1173                           
  1174                           ;victim.c: 99:                 } else {
  1175     00CE  28F0               	goto	l163
  1176     00CF                     l2239:
  1177                           
  1178                           ;victim.c: 100:                     Leds_Off(); RB1=1;
  1179     00CF  120A  158A  25EF  120A  118A  	fcall	_Leds_Off
  1180     00D4                     l2241:
  1181     00D4  1283               	bcf	3,5	;RP0=0, select bank0
  1182     00D5  1303               	bcf	3,6	;RP1=0, select bank0
  1183     00D6  1486               	bsf	6,1	;volatile
  1184     00D7                     l2243:
  1185                           
  1186                           ;victim.c: 101:                     Lcd_Set_Cursor(1,1);
  1187     00D7  01F7               	clrf	Lcd_Set_Cursor@b
  1188     00D8  0AF7               	incf	Lcd_Set_Cursor@b,f
  1189     00D9  3001               	movlw	1
  1190     00DA  120A  158A  2761  120A  118A  	fcall	_Lcd_Set_Cursor
  1191     00DF                     l2245:
  1192                           
  1193                           ;victim.c: 102:                     Lcd_Write_String("STATUS: UNLOCKED");
  1194     00DF  3068               	movlw	(low ((STR_3-__stringbase)| (0+32768)))& (0+255)
  1195     00E0  00F4               	movwf	Lcd_Write_String@a
  1196     00E1  3080               	movlw	128
  1197     00E2  00F5               	movwf	Lcd_Write_String@a+1
  1198     00E3  120A  118A  2603  120A  118A  	fcall	_Lcd_Write_String
  1199     00E8                     l2247:
  1200                           
  1201                           ;victim.c: 103:                     UART_Write('u');;
  1202     00E8  3075               	movlw	117
  1203     00E9  120A  158A  2623  120A  118A  	fcall	_UART_Write
  1204     00EE  28F0               	goto	l163
  1205     00EF                     l164:
  1206     00EF  0064               	clrwdt	;# 
  1207     00F0                     l163:
  1208     00F0  1283               	bcf	3,5	;RP0=0, select bank0
  1209     00F1  1303               	bcf	3,6	;RP1=0, select bank0
  1210     00F2  1C06               	btfss	6,0	;volatile
  1211     00F3  28F5               	goto	u2391
  1212     00F4  28F6               	goto	u2390
  1213     00F5                     u2391:
  1214     00F5  28EF               	goto	l164
  1215     00F6                     u2390:
  1216     00F6                     l2249:
  1217                           
  1218                           ;victim.c: 110:         if(!trancado){
  1219     00F6  1683               	bsf	3,5	;RP0=1, select bank1
  1220     00F7  1303               	bcf	3,6	;RP1=0, select bank1
  1221     00F8  086A               	movf	_trancado^(0+128),w
  1222     00F9  046B               	iorwf	(_trancado+1)^(0+128),w
  1223     00FA  1D03               	btfss	3,2
  1224     00FB  28FD               	goto	u2401
  1225     00FC  28FE               	goto	u2400
  1226     00FD                     u2401:
  1227     00FD  299D               	goto	l2265
  1228     00FE                     u2400:
  1229     00FE                     l2251:
  1230                           
  1231                           ;victim.c: 111:             int pot = ADC_Read();
  1232     00FE  120A  158A  2641  120A  118A  	fcall	_ADC_Read
  1233     0103  0874               	movf	?_ADC_Read+1,w
  1234     0104  1683               	bsf	3,5	;RP0=1, select bank1
  1235     0105  1303               	bcf	3,6	;RP1=0, select bank1
  1236     0106  00C0               	movwf	(main@pot+1)^(0+128)
  1237     0107  0873               	movf	?_ADC_Read,w
  1238     0108  00BF               	movwf	main@pot^(0+128)
  1239     0109                     l2253:
  1240                           
  1241                           ;victim.c: 112:             kmh_simulado = (int)((unsigned long)pot * 220 / 1023);
  1242     0109  3000               	movlw	0
  1243     010A  1283               	bcf	3,5	;RP0=0, select bank0
  1244     010B  1303               	bcf	3,6	;RP1=0, select bank0
  1245     010C  00AB               	movwf	___lldiv@divisor+3
  1246     010D  3000               	movlw	0
  1247     010E  00AA               	movwf	___lldiv@divisor+2
  1248     010F  3003               	movlw	3
  1249     0110  00A9               	movwf	___lldiv@divisor+1
  1250     0111  30FF               	movlw	255
  1251     0112  00A8               	movwf	___lldiv@divisor
  1252     0113  1683               	bsf	3,5	;RP0=1, select bank1
  1253     0114  1303               	bcf	3,6	;RP1=0, select bank1
  1254     0115  083F               	movf	main@pot^(0+128),w
  1255     0116  1283               	bcf	3,5	;RP0=0, select bank0
  1256     0117  1303               	bcf	3,6	;RP1=0, select bank0
  1257     0118  00A0               	movwf	___lmul@multiplier
  1258     0119  1683               	bsf	3,5	;RP0=1, select bank1
  1259     011A  1303               	bcf	3,6	;RP1=0, select bank1
  1260     011B  0840               	movf	(main@pot+1)^(0+128),w
  1261     011C  1283               	bcf	3,5	;RP0=0, select bank0
  1262     011D  1303               	bcf	3,6	;RP1=0, select bank0
  1263     011E  00A1               	movwf	___lmul@multiplier+1
  1264     011F  3000               	movlw	0
  1265     0120  1BA1               	btfsc	___lmul@multiplier+1,7
  1266     0121  30FF               	movlw	255
  1267     0122  00A2               	movwf	___lmul@multiplier+2
  1268     0123  00A3               	movwf	___lmul@multiplier+3
  1269     0124  3000               	movlw	0
  1270     0125  00A7               	movwf	___lmul@multiplicand+3
  1271     0126  3000               	movlw	0
  1272     0127  00A6               	movwf	___lmul@multiplicand+2
  1273     0128  3000               	movlw	0
  1274     0129  00A5               	movwf	___lmul@multiplicand+1
  1275     012A  30DC               	movlw	220
  1276     012B  00A4               	movwf	___lmul@multiplicand
  1277     012C  120A  118A  27B3  120A  118A  	fcall	___lmul
  1278     0131  1283               	bcf	3,5	;RP0=0, select bank0
  1279     0132  1303               	bcf	3,6	;RP1=0, select bank0
  1280     0133  0823               	movf	?___lmul+3,w
  1281     0134  00AF               	movwf	___lldiv@dividend+3
  1282     0135  0822               	movf	?___lmul+2,w
  1283     0136  00AE               	movwf	___lldiv@dividend+2
  1284     0137  0821               	movf	?___lmul+1,w
  1285     0138  00AD               	movwf	___lldiv@dividend+1
  1286     0139  0820               	movf	?___lmul,w
  1287     013A  00AC               	movwf	___lldiv@dividend
  1288     013B  120A  118A  268A  120A  118A  	fcall	___lldiv
  1289     0140  1283               	bcf	3,5	;RP0=0, select bank0
  1290     0141  1303               	bcf	3,6	;RP1=0, select bank0
  1291     0142  0829               	movf	?___lldiv+1,w
  1292     0143  1683               	bsf	3,5	;RP0=1, select bank1
  1293     0144  1303               	bcf	3,6	;RP1=0, select bank1
  1294     0145  00E9               	movwf	(_kmh_simulado+1)^(0+128)
  1295     0146  1283               	bcf	3,5	;RP0=0, select bank0
  1296     0147  1303               	bcf	3,6	;RP1=0, select bank0
  1297     0148  0828               	movf	?___lldiv,w
  1298     0149  1683               	bsf	3,5	;RP0=1, select bank1
  1299     014A  1303               	bcf	3,6	;RP1=0, select bank1
  1300     014B  00E8               	movwf	_kmh_simulado^(0+128)
  1301     014C                     l2255:
  1302                           
  1303                           ;victim.c: 114:             if(flag_enviar_dados == 1){
  1304     014C  0366               	decf	_flag_enviar_dados^(0+128),w	;volatile
  1305     014D  0467               	iorwf	(_flag_enviar_dados+1)^(0+128),w	;volatile
  1306     014E  1D03               	btfss	3,2
  1307     014F  2951               	goto	u2411
  1308     0150  2952               	goto	u2410
  1309     0151                     u2411:
  1310     0151  29AE               	goto	l2269
  1311     0152                     u2410:
  1312     0152                     l2257:
  1313                           
  1314                           ;victim.c: 115:                 char pkt[15];;victim.c: 116:                 sprintf(pkt
      +                          , "#100:%d$", kmh_simulado);
  1315     0152  30B0               	movlw	(low (main@pkt| 0))& (0+255)
  1316     0153  1283               	bcf	3,5	;RP0=0, select bank0
  1317     0154  1303               	bcf	3,6	;RP1=0, select bank0
  1318     0155  00BB               	movwf	sprintf@s
  1319     0156  30A4               	movlw	(low ((STR_4-__stringbase)| (0+32768)))& (0+255)
  1320     0157  00BC               	movwf	sprintf@fmt
  1321     0158  1683               	bsf	3,5	;RP0=1, select bank1
  1322     0159  1303               	bcf	3,6	;RP1=0, select bank1
  1323     015A  0869               	movf	(_kmh_simulado+1)^(0+128),w
  1324     015B  1283               	bcf	3,5	;RP0=0, select bank0
  1325     015C  1303               	bcf	3,6	;RP1=0, select bank0
  1326     015D  00BE               	movwf	?_sprintf+3
  1327     015E  1683               	bsf	3,5	;RP0=1, select bank1
  1328     015F  1303               	bcf	3,6	;RP1=0, select bank1
  1329     0160  0868               	movf	_kmh_simulado^(0+128),w
  1330     0161  1283               	bcf	3,5	;RP0=0, select bank0
  1331     0162  1303               	bcf	3,6	;RP1=0, select bank0
  1332     0163  00BD               	movwf	?_sprintf+2
  1333     0164  120A  158A  26D9  120A  118A  	fcall	_sprintf
  1334                           
  1335                           ;victim.c: 117:                 UART_Write_String(pkt);
  1336     0169  30B0               	movlw	(low (main@pkt| 0))& (0+255)
  1337     016A  00F4               	movwf	UART_Write_String@s
  1338     016B  120A  158A  2666  120A  118A  	fcall	_UART_Write_String
  1339                           
  1340                           ;victim.c: 119:                 char s[16];;victim.c: 120:                 sprintf(s, "V
      +                          EL: %d Km/h    ", kmh_simulado);
  1341     0170  30A0               	movlw	(low (main@s| 0))& (0+255)
  1342     0171  1283               	bcf	3,5	;RP0=0, select bank0
  1343     0172  1303               	bcf	3,6	;RP1=0, select bank0
  1344     0173  00BB               	movwf	sprintf@s
  1345     0174  3035               	movlw	(low ((STR_5-__stringbase)| (0+32768)))& (0+255)
  1346     0175  00BC               	movwf	sprintf@fmt
  1347     0176  1683               	bsf	3,5	;RP0=1, select bank1
  1348     0177  1303               	bcf	3,6	;RP1=0, select bank1
  1349     0178  0869               	movf	(_kmh_simulado+1)^(0+128),w
  1350     0179  1283               	bcf	3,5	;RP0=0, select bank0
  1351     017A  1303               	bcf	3,6	;RP1=0, select bank0
  1352     017B  00BE               	movwf	?_sprintf+3
  1353     017C  1683               	bsf	3,5	;RP0=1, select bank1
  1354     017D  1303               	bcf	3,6	;RP1=0, select bank1
  1355     017E  0868               	movf	_kmh_simulado^(0+128),w
  1356     017F  1283               	bcf	3,5	;RP0=0, select bank0
  1357     0180  1303               	bcf	3,6	;RP1=0, select bank0
  1358     0181  00BD               	movwf	?_sprintf+2
  1359     0182  120A  158A  26D9  120A  118A  	fcall	_sprintf
  1360     0187                     l2259:
  1361                           
  1362                           ;victim.c: 121:                 Lcd_Set_Cursor(2,1);
  1363     0187  01F7               	clrf	Lcd_Set_Cursor@b
  1364     0188  0AF7               	incf	Lcd_Set_Cursor@b,f
  1365     0189  3002               	movlw	2
  1366     018A  120A  158A  2761  120A  118A  	fcall	_Lcd_Set_Cursor
  1367     018F                     l2261:
  1368                           
  1369                           ;victim.c: 122:                 Lcd_Write_String(s);
  1370     018F  30A0               	movlw	(low (main@s| 0))& (0+255)
  1371     0190  00F4               	movwf	Lcd_Write_String@a
  1372     0191  3000               	movlw	0
  1373     0192  00F5               	movwf	Lcd_Write_String@a+1
  1374     0193  120A  118A  2603  120A  118A  	fcall	_Lcd_Write_String
  1375     0198                     l2263:
  1376                           
  1377                           ;victim.c: 124:                 flag_enviar_dados = 0;
  1378     0198  1683               	bsf	3,5	;RP0=1, select bank1
  1379     0199  1303               	bcf	3,6	;RP1=0, select bank1
  1380     019A  01E6               	clrf	_flag_enviar_dados^(0+128)	;volatile
  1381     019B  01E7               	clrf	(_flag_enviar_dados+1)^(0+128)	;volatile
  1382     019C  29AE               	goto	l2269
  1383     019D                     l2265:
  1384                           
  1385                           ;victim.c: 127:             Lcd_Set_Cursor(2,1);
  1386     019D  01F7               	clrf	Lcd_Set_Cursor@b
  1387     019E  0AF7               	incf	Lcd_Set_Cursor@b,f
  1388     019F  3002               	movlw	2
  1389     01A0  120A  158A  2761  120A  118A  	fcall	_Lcd_Set_Cursor
  1390     01A5                     l2267:
  1391                           
  1392                           ;victim.c: 128:             Lcd_Write_String("ENGINE OFF      ");
  1393     01A5  3013               	movlw	(low ((STR_6-__stringbase)| (0+32768)))& (0+255)
  1394     01A6  00F4               	movwf	Lcd_Write_String@a
  1395     01A7  3080               	movlw	128
  1396     01A8  00F5               	movwf	Lcd_Write_String@a+1
  1397     01A9  120A  118A  2603  120A  118A  	fcall	_Lcd_Write_String
  1398     01AE                     l2269:
  1399                           
  1400                           ;victim.c: 132:         if(PIR1bits.RCIF){
  1401     01AE  1283               	bcf	3,5	;RP0=0, select bank0
  1402     01AF  1303               	bcf	3,6	;RP1=0, select bank0
  1403     01B0  1E8C               	btfss	12,5	;volatile
  1404     01B1  29B3               	goto	u2421
  1405     01B2  29B4               	goto	u2420
  1406     01B3                     u2421:
  1407     01B3  2876               	goto	l158
  1408     01B4                     u2420:
  1409     01B4                     l2271:
  1410                           
  1411                           ;victim.c: 133:             char c = UART_Read();
  1412     01B4  120A  158A  2631  120A  118A  	fcall	_UART_Read
  1413     01B9  1683               	bsf	3,5	;RP0=1, select bank1
  1414     01BA  1303               	bcf	3,6	;RP1=0, select bank1
  1415     01BB  00C5               	movwf	main@c^(0+128)
  1416     01BC                     l2273:
  1417                           
  1418                           ;victim.c: 135:             if(c == 'u') {
  1419     01BC  3075               	movlw	117
  1420     01BD  0645               	xorwf	main@c^(0+128),w
  1421     01BE  1D03               	btfss	3,2
  1422     01BF  29C1               	goto	u2431
  1423     01C0  29C2               	goto	u2430
  1424     01C1                     u2431:
  1425     01C1  29DE               	goto	l2285
  1426     01C2                     u2430:
  1427     01C2                     l2275:
  1428                           
  1429                           ;victim.c: 136:                 trancado = 0;
  1430     01C2  01EA               	clrf	_trancado^(0+128)
  1431     01C3  01EB               	clrf	(_trancado+1)^(0+128)
  1432     01C4                     l2277:
  1433                           
  1434                           ;victim.c: 137:                 Leds_Off();
  1435     01C4  120A  158A  25EF  120A  118A  	fcall	_Leds_Off
  1436     01C9                     l2279:
  1437                           
  1438                           ;victim.c: 138:                 RB1 = 1;
  1439     01C9  1283               	bcf	3,5	;RP0=0, select bank0
  1440     01CA  1303               	bcf	3,6	;RP1=0, select bank0
  1441     01CB  1486               	bsf	6,1	;volatile
  1442     01CC                     l2281:
  1443                           
  1444                           ;victim.c: 139:                 Lcd_Set_Cursor(1,1);
  1445     01CC  01F7               	clrf	Lcd_Set_Cursor@b
  1446     01CD  0AF7               	incf	Lcd_Set_Cursor@b,f
  1447     01CE  3001               	movlw	1
  1448     01CF  120A  158A  2761  120A  118A  	fcall	_Lcd_Set_Cursor
  1449     01D4                     l2283:
  1450                           
  1451                           ;victim.c: 140:                 Lcd_Write_String("REMOTE UNLOCK   ");
  1452     01D4  3046               	movlw	(low ((STR_7-__stringbase)| (0+32768)))& (0+255)
  1453     01D5  00F4               	movwf	Lcd_Write_String@a
  1454     01D6  3080               	movlw	128
  1455     01D7  00F5               	movwf	Lcd_Write_String@a+1
  1456     01D8  120A  118A  2603  120A  118A  	fcall	_Lcd_Write_String
  1457                           
  1458                           ;victim.c: 141:             }
  1459     01DD  2876               	goto	l158
  1460     01DE                     l2285:
  1461     01DE  306C               	movlw	108
  1462     01DF  0645               	xorwf	main@c^(0+128),w
  1463     01E0  1D03               	btfss	3,2
  1464     01E1  29E3               	goto	u2441
  1465     01E2  29E4               	goto	u2440
  1466     01E3                     u2441:
  1467     01E3  2A02               	goto	l2295
  1468     01E4                     u2440:
  1469     01E4                     l2287:
  1470                           
  1471                           ;victim.c: 143:                 trancado = 1;
  1472     01E4  3001               	movlw	1
  1473     01E5  00EA               	movwf	_trancado^(0+128)
  1474     01E6  3000               	movlw	0
  1475     01E7  00EB               	movwf	(_trancado^(0+128)+1)
  1476     01E8                     l2289:
  1477                           
  1478                           ;victim.c: 144:                 Leds_Off();
  1479     01E8  120A  158A  25EF  120A  118A  	fcall	_Leds_Off
  1480     01ED                     l2291:
  1481                           
  1482                           ;victim.c: 145:                 RB5 = 1;
  1483     01ED  1283               	bcf	3,5	;RP0=0, select bank0
  1484     01EE  1303               	bcf	3,6	;RP1=0, select bank0
  1485     01EF  1686               	bsf	6,5	;volatile
  1486                           
  1487                           ;victim.c: 146:                 Lcd_Set_Cursor(1,1);
  1488     01F0  01F7               	clrf	Lcd_Set_Cursor@b
  1489     01F1  0AF7               	incf	Lcd_Set_Cursor@b,f
  1490     01F2  3001               	movlw	1
  1491     01F3  120A  158A  2761  120A  118A  	fcall	_Lcd_Set_Cursor
  1492     01F8                     l2293:
  1493                           
  1494                           ;victim.c: 147:                 Lcd_Write_String("REMOTE LOCK     ");
  1495     01F8  3024               	movlw	(low ((STR_8-__stringbase)| (0+32768)))& (0+255)
  1496     01F9  00F4               	movwf	Lcd_Write_String@a
  1497     01FA  3080               	movlw	128
  1498     01FB  00F5               	movwf	Lcd_Write_String@a+1
  1499     01FC  120A  118A  2603  120A  118A  	fcall	_Lcd_Write_String
  1500                           
  1501                           ;victim.c: 148:             }
  1502     0201  2876               	goto	l158
  1503     0202                     l2295:
  1504     0202  3042               	movlw	66
  1505     0203  0645               	xorwf	main@c^(0+128),w
  1506     0204  1D03               	btfss	3,2
  1507     0205  2A07               	goto	u2451
  1508     0206  2A08               	goto	u2450
  1509     0207                     u2451:
  1510     0207  2A62               	goto	l2321
  1511     0208                     u2450:
  1512     0208                     l2297:
  1513                           
  1514                           ;victim.c: 151:                 Leds_Off();
  1515     0208  120A  158A  25EF  120A  118A  	fcall	_Leds_Off
  1516     020D                     l2299:
  1517                           
  1518                           ;victim.c: 152:                 RB2=1;
  1519     020D  1283               	bcf	3,5	;RP0=0, select bank0
  1520     020E  1303               	bcf	3,6	;RP1=0, select bank0
  1521     020F  1506               	bsf	6,2	;volatile
  1522     0210                     l2301:
  1523                           
  1524                           ;victim.c: 153:                 Lcd_Clear();
  1525     0210  120A  158A  2608  120A  118A  	fcall	_Lcd_Clear
  1526     0215                     l2303:
  1527                           
  1528                           ;victim.c: 154:                 Lcd_Set_Cursor(1,1);
  1529     0215  01F7               	clrf	Lcd_Set_Cursor@b
  1530     0216  0AF7               	incf	Lcd_Set_Cursor@b,f
  1531     0217  3001               	movlw	1
  1532     0218  120A  158A  2761  120A  118A  	fcall	_Lcd_Set_Cursor
  1533     021D                     l2305:
  1534                           
  1535                           ;victim.c: 155:                 Lcd_Write_String("BUS WARNING!");
  1536     021D  3097               	movlw	(low ((STR_9-__stringbase)| (0+32768)))& (0+255)
  1537     021E  00F4               	movwf	Lcd_Write_String@a
  1538     021F  3080               	movlw	128
  1539     0220  00F5               	movwf	Lcd_Write_String@a+1
  1540     0221  120A  118A  2603  120A  118A  	fcall	_Lcd_Write_String
  1541     0226                     l2307:
  1542                           
  1543                           ;victim.c: 156:                 Lcd_Set_Cursor(2,1);
  1544     0226  01F7               	clrf	Lcd_Set_Cursor@b
  1545     0227  0AF7               	incf	Lcd_Set_Cursor@b,f
  1546     0228  3002               	movlw	2
  1547     0229  120A  158A  2761  120A  118A  	fcall	_Lcd_Set_Cursor
  1548     022E                     l2309:
  1549                           
  1550                           ;victim.c: 157:                 Lcd_Write_String("WDT RECOVER...");
  1551     022E  3088               	movlw	(low ((STR_10-__stringbase)| (0+32768)))& (0+255)
  1552     022F  00F4               	movwf	Lcd_Write_String@a
  1553     0230  3080               	movlw	128
  1554     0231  00F5               	movwf	Lcd_Write_String@a+1
  1555     0232  120A  118A  2603  120A  118A  	fcall	_Lcd_Write_String
  1556     0237                     l2311:
  1557                           
  1558                           ;victim.c: 158:                 for(int k=0;k<30;k++){
  1559     0237  1683               	bsf	3,5	;RP0=1, select bank1
  1560     0238  1303               	bcf	3,6	;RP1=0, select bank1
  1561     0239  01C1               	clrf	main@k^(0+128)
  1562     023A  01C2               	clrf	(main@k+1)^(0+128)
  1563     023B                     l2313:
  1564     023B  0842               	movf	(main@k+1)^(0+128),w
  1565     023C  3A80               	xorlw	128
  1566     023D  00FF               	movwf	btemp1
  1567     023E  3080               	movlw	128
  1568     023F  027F               	subwf	btemp1,w
  1569     0240  1D03               	skipz
  1570     0241  2A44               	goto	u2465
  1571     0242  301E               	movlw	30
  1572     0243  0241               	subwf	main@k^(0+128),w
  1573     0244                     u2465:
  1574     0244  1C03               	skipc
  1575     0245  2A47               	goto	u2461
  1576     0246  2A48               	goto	u2460
  1577     0247                     u2461:
  1578     0247  2A49               	goto	l2317
  1579     0248                     u2460:
  1580     0248  2A61               	goto	l177
  1581     0249                     l2317:
  1582                           
  1583                           ;victim.c: 159:                     _delay((unsigned long)((100)*(20000000/4000.0)));
  1584     0249  3003               	movlw	3
  1585     024A  1283               	bcf	3,5	;RP0=0, select bank0
  1586     024B  1303               	bcf	3,6	;RP1=0, select bank0
  1587     024C  00CE               	movwf	??_main+2
  1588     024D  308A               	movlw	138
  1589     024E  00CD               	movwf	??_main+1
  1590     024F  3055               	movlw	85
  1591     0250  00CC               	movwf	??_main
  1592     0251                     u2517:
  1593     0251  0BCC               	decfsz	??_main,f
  1594     0252  2A51               	goto	u2517
  1595     0253  0BCD               	decfsz	??_main+1,f
  1596     0254  2A51               	goto	u2517
  1597     0255  0BCE               	decfsz	??_main+2,f
  1598     0256  2A51               	goto	u2517
  1599     0257  0064               	clrwdt	;# 
  1600                           
  1601                           ;victim.c: 161:                 }
  1602     0258  3001               	movlw	1
  1603     0259  1683               	bsf	3,5	;RP0=1, select bank1
  1604     025A  1303               	bcf	3,6	;RP1=0, select bank1
  1605     025B  07C1               	addwf	main@k^(0+128),f
  1606     025C  1803               	skipnc
  1607     025D  0AC2               	incf	(main@k+1)^(0+128),f
  1608     025E  3000               	movlw	0
  1609     025F  07C2               	addwf	(main@k+1)^(0+128),f
  1610     0260  2A3B               	goto	l2313
  1611     0261                     l177:	
  1612                           ;victim.c: 162:                 while(1);
  1613                           
  1614     0261  2A61               	goto	l177
  1615     0262                     l2321:
  1616     0262  3043               	movlw	67
  1617     0263  0645               	xorwf	main@c^(0+128),w
  1618     0264  1D03               	btfss	3,2
  1619     0265  2A67               	goto	u2471
  1620     0266  2A68               	goto	u2470
  1621     0267                     u2471:
  1622     0267  2AC3               	goto	l2349
  1623     0268                     u2470:
  1624     0268                     l2323:
  1625                           
  1626                           ;victim.c: 166:                 Leds_Off();
  1627     0268  120A  158A  25EF  120A  118A  	fcall	_Leds_Off
  1628     026D                     l2325:
  1629                           
  1630                           ;victim.c: 167:                 RB4=1;
  1631     026D  1283               	bcf	3,5	;RP0=0, select bank0
  1632     026E  1303               	bcf	3,6	;RP1=0, select bank0
  1633     026F  1606               	bsf	6,4	;volatile
  1634     0270                     l2327:
  1635                           
  1636                           ;victim.c: 168:                 RB3=1;
  1637     0270  1586               	bsf	6,3	;volatile
  1638     0271                     l2329:
  1639                           
  1640                           ;victim.c: 169:                 Lcd_Clear();
  1641     0271  120A  158A  2608  120A  118A  	fcall	_Lcd_Clear
  1642     0276                     l2331:
  1643                           
  1644                           ;victim.c: 170:                 Lcd_Set_Cursor(1,1);
  1645     0276  01F7               	clrf	Lcd_Set_Cursor@b
  1646     0277  0AF7               	incf	Lcd_Set_Cursor@b,f
  1647     0278  3001               	movlw	1
  1648     0279  120A  158A  2761  120A  118A  	fcall	_Lcd_Set_Cursor
  1649     027E                     l2333:
  1650                           
  1651                           ;victim.c: 171:                 Lcd_Write_String("CRITICAL FAIL!");
  1652     027E  3079               	movlw	(low ((STR_11-__stringbase)| (0+32768)))& (0+255)
  1653     027F  00F4               	movwf	Lcd_Write_String@a
  1654     0280  3080               	movlw	128
  1655     0281  00F5               	movwf	Lcd_Write_String@a+1
  1656     0282  120A  118A  2603  120A  118A  	fcall	_Lcd_Write_String
  1657     0287                     l2335:
  1658                           
  1659                           ;victim.c: 172:                 Lcd_Set_Cursor(2,1);
  1660     0287  01F7               	clrf	Lcd_Set_Cursor@b
  1661     0288  0AF7               	incf	Lcd_Set_Cursor@b,f
  1662     0289  3002               	movlw	2
  1663     028A  120A  158A  2761  120A  118A  	fcall	_Lcd_Set_Cursor
  1664     028F                     l2337:
  1665                           
  1666                           ;victim.c: 173:                 Lcd_Write_String("WDT RECOVER...");
  1667     028F  3088               	movlw	(low ((STR_10-__stringbase)| (0+32768)))& (0+255)
  1668     0290  00F4               	movwf	Lcd_Write_String@a
  1669     0291  3080               	movlw	128
  1670     0292  00F5               	movwf	Lcd_Write_String@a+1
  1671     0293  120A  118A  2603  120A  118A  	fcall	_Lcd_Write_String
  1672     0298                     l2339:
  1673                           
  1674                           ;victim.c: 174:                 for(int k=0;k<30;k++){
  1675     0298  1683               	bsf	3,5	;RP0=1, select bank1
  1676     0299  1303               	bcf	3,6	;RP1=0, select bank1
  1677     029A  01C3               	clrf	main@k_361^(0+128)
  1678     029B  01C4               	clrf	(main@k_361+1)^(0+128)
  1679     029C                     l2341:
  1680     029C  0844               	movf	(main@k_361+1)^(0+128),w
  1681     029D  3A80               	xorlw	128
  1682     029E  00FF               	movwf	btemp1
  1683     029F  3080               	movlw	128
  1684     02A0  027F               	subwf	btemp1,w
  1685     02A1  1D03               	skipz
  1686     02A2  2AA5               	goto	u2485
  1687     02A3  301E               	movlw	30
  1688     02A4  0243               	subwf	main@k_361^(0+128),w
  1689     02A5                     u2485:
  1690     02A5  1C03               	skipc
  1691     02A6  2AA8               	goto	u2481
  1692     02A7  2AA9               	goto	u2480
  1693     02A8                     u2481:
  1694     02A8  2AAA               	goto	l2345
  1695     02A9                     u2480:
  1696     02A9  2AC2               	goto	l184
  1697     02AA                     l2345:
  1698                           
  1699                           ;victim.c: 175:                     _delay((unsigned long)((100)*(20000000/4000.0)));
  1700     02AA  3003               	movlw	3
  1701     02AB  1283               	bcf	3,5	;RP0=0, select bank0
  1702     02AC  1303               	bcf	3,6	;RP1=0, select bank0
  1703     02AD  00CE               	movwf	??_main+2
  1704     02AE  308A               	movlw	138
  1705     02AF  00CD               	movwf	??_main+1
  1706     02B0  3055               	movlw	85
  1707     02B1  00CC               	movwf	??_main
  1708     02B2                     u2527:
  1709     02B2  0BCC               	decfsz	??_main,f
  1710     02B3  2AB2               	goto	u2527
  1711     02B4  0BCD               	decfsz	??_main+1,f
  1712     02B5  2AB2               	goto	u2527
  1713     02B6  0BCE               	decfsz	??_main+2,f
  1714     02B7  2AB2               	goto	u2527
  1715     02B8  0064               	clrwdt	;# 
  1716                           
  1717                           ;victim.c: 177:                 }
  1718     02B9  3001               	movlw	1
  1719     02BA  1683               	bsf	3,5	;RP0=1, select bank1
  1720     02BB  1303               	bcf	3,6	;RP1=0, select bank1
  1721     02BC  07C3               	addwf	main@k_361^(0+128),f
  1722     02BD  1803               	skipnc
  1723     02BE  0AC4               	incf	(main@k_361+1)^(0+128),f
  1724     02BF  3000               	movlw	0
  1725     02C0  07C4               	addwf	(main@k_361+1)^(0+128),f
  1726     02C1  2A9C               	goto	l2341
  1727     02C2                     l184:	
  1728                           ;victim.c: 178:                 while(1);
  1729                           
  1730     02C2  2AC2               	goto	l184
  1731     02C3                     l2349:
  1732     02C3  0845               	movf	main@c^(0+128),w
  1733     02C4  1D03               	btfss	3,2
  1734     02C5  2AC7               	goto	u2491
  1735     02C6  2AC8               	goto	u2490
  1736     02C7                     u2491:
  1737     02C7  2876               	goto	l158
  1738     02C8                     u2490:
  1739     02C8                     l2351:
  1740                           
  1741                           ;victim.c: 183:                 Leds_Off();
  1742     02C8  120A  158A  25EF  120A  118A  	fcall	_Leds_Off
  1743     02CD                     l2353:
  1744                           
  1745                           ;victim.c: 184:                 RB4=1;
  1746     02CD  1283               	bcf	3,5	;RP0=0, select bank0
  1747     02CE  1303               	bcf	3,6	;RP1=0, select bank0
  1748     02CF  1606               	bsf	6,4	;volatile
  1749     02D0                     l2355:
  1750                           
  1751                           ;victim.c: 185:                 Lcd_Clear();
  1752     02D0  120A  158A  2608  120A  118A  	fcall	_Lcd_Clear
  1753     02D5                     l2357:
  1754                           
  1755                           ;victim.c: 186:                 Lcd_Set_Cursor(1,1);
  1756     02D5  01F7               	clrf	Lcd_Set_Cursor@b
  1757     02D6  0AF7               	incf	Lcd_Set_Cursor@b,f
  1758     02D7  3001               	movlw	1
  1759     02D8  120A  158A  2761  120A  118A  	fcall	_Lcd_Set_Cursor
  1760     02DD                     l2359:
  1761                           
  1762                           ;victim.c: 187:                 Lcd_Write_String("!! FATAL ERROR !!");
  1763     02DD  3001               	movlw	(low ((STR_13-__stringbase)| (0+32768)))& (0+255)
  1764     02DE  00F4               	movwf	Lcd_Write_String@a
  1765     02DF  3080               	movlw	128
  1766     02E0  00F5               	movwf	Lcd_Write_String@a+1
  1767     02E1  120A  118A  2603  120A  118A  	fcall	_Lcd_Write_String
  1768     02E6                     l2361:
  1769                           
  1770                           ;victim.c: 189:                     RB4 = 0;
  1771     02E6  1283               	bcf	3,5	;RP0=0, select bank0
  1772     02E7  1303               	bcf	3,6	;RP1=0, select bank0
  1773     02E8  1206               	bcf	6,4	;volatile
  1774     02E9                     l2363:
  1775                           
  1776                           ;victim.c: 190:                     _delay((unsigned long)((20)*(20000000/4000.0)));
  1777     02E9  3082               	movlw	130
  1778     02EA  1283               	bcf	3,5	;RP0=0, select bank0
  1779     02EB  1303               	bcf	3,6	;RP1=0, select bank0
  1780     02EC  00CD               	movwf	??_main+1
  1781     02ED  30DD               	movlw	221
  1782     02EE  00CC               	movwf	??_main
  1783     02EF                     u2537:
  1784     02EF  0BCC               	decfsz	??_main,f
  1785     02F0  2AEF               	goto	u2537
  1786     02F1  0BCD               	decfsz	??_main+1,f
  1787     02F2  2AEF               	goto	u2537
  1788     02F3                     l2365:
  1789                           
  1790                           ;victim.c: 191:                     RB4 = 1;
  1791     02F3  1283               	bcf	3,5	;RP0=0, select bank0
  1792     02F4  1303               	bcf	3,6	;RP1=0, select bank0
  1793     02F5  1606               	bsf	6,4	;volatile
  1794     02F6                     l2367:
  1795                           
  1796                           ;victim.c: 192:                     RB2 = 0;
  1797     02F6  1106               	bcf	6,2	;volatile
  1798     02F7                     l2369:
  1799                           
  1800                           ;victim.c: 193:                     _delay((unsigned long)((20)*(20000000/4000.0)));
  1801     02F7  3082               	movlw	130
  1802     02F8  1283               	bcf	3,5	;RP0=0, select bank0
  1803     02F9  1303               	bcf	3,6	;RP1=0, select bank0
  1804     02FA  00CD               	movwf	??_main+1
  1805     02FB  30DD               	movlw	221
  1806     02FC  00CC               	movwf	??_main
  1807     02FD                     u2547:
  1808     02FD  0BCC               	decfsz	??_main,f
  1809     02FE  2AFD               	goto	u2547
  1810     02FF  0BCD               	decfsz	??_main+1,f
  1811     0300  2AFD               	goto	u2547
  1812     0301                     l2371:
  1813                           
  1814                           ;victim.c: 194:                     RB2 = 1;
  1815     0301  1283               	bcf	3,5	;RP0=0, select bank0
  1816     0302  1303               	bcf	3,6	;RP1=0, select bank0
  1817     0303  1506               	bsf	6,2	;volatile
  1818     0304                     l2373:
  1819                           
  1820                           ;victim.c: 195:                     RB1 = 0;
  1821     0304  1086               	bcf	6,1	;volatile
  1822     0305                     l2375:
  1823                           
  1824                           ;victim.c: 196:                     _delay((unsigned long)((20)*(20000000/4000.0)));
  1825     0305  3082               	movlw	130
  1826     0306  1283               	bcf	3,5	;RP0=0, select bank0
  1827     0307  1303               	bcf	3,6	;RP1=0, select bank0
  1828     0308  00CD               	movwf	??_main+1
  1829     0309  30DD               	movlw	221
  1830     030A  00CC               	movwf	??_main
  1831     030B                     u2557:
  1832     030B  0BCC               	decfsz	??_main,f
  1833     030C  2B0B               	goto	u2557
  1834     030D  0BCD               	decfsz	??_main+1,f
  1835     030E  2B0B               	goto	u2557
  1836     030F                     l2377:
  1837                           
  1838                           ;victim.c: 197:                     RB1 = 1;
  1839     030F  1283               	bcf	3,5	;RP0=0, select bank0
  1840     0310  1303               	bcf	3,6	;RP1=0, select bank0
  1841     0311  1486               	bsf	6,1	;volatile
  1842     0312                     l2379:
  1843                           
  1844                           ;victim.c: 198:                     RB3 = 1;
  1845     0312  1586               	bsf	6,3	;volatile
  1846     0313                     l2381:
  1847                           
  1848                           ;victim.c: 199:                     _delay((unsigned long)((20)*(20000000/4000.0)));
  1849     0313  3082               	movlw	130
  1850     0314  1283               	bcf	3,5	;RP0=0, select bank0
  1851     0315  1303               	bcf	3,6	;RP1=0, select bank0
  1852     0316  00CD               	movwf	??_main+1
  1853     0317  30DD               	movlw	221
  1854     0318  00CC               	movwf	??_main
  1855     0319                     u2567:
  1856     0319  0BCC               	decfsz	??_main,f
  1857     031A  2B19               	goto	u2567
  1858     031B  0BCD               	decfsz	??_main+1,f
  1859     031C  2B19               	goto	u2567
  1860     031D                     l2383:
  1861                           
  1862                           ;victim.c: 200:                     RB3= 0;
  1863     031D  1283               	bcf	3,5	;RP0=0, select bank0
  1864     031E  1303               	bcf	3,6	;RP1=0, select bank0
  1865     031F  1186               	bcf	6,3	;volatile
  1866     0320  0064               	clrwdt	;# 
  1867     0321  2AE6               	goto	l2361
  1868     0322  120A  118A  280E   	ljmp	start
  1869     0325                     __end_of_main:
  1870                           
  1871                           	psect	text1
  1872     0ED9                     __ptext1:	
  1873 ;; *************** function _sprintf *****************
  1874 ;; Defined at:
  1875 ;;		line 9 in file "C:\Program Files\Microchip\xc8\v3.10\pic\sources\c99\common\nf_sprintf.c"
  1876 ;; Parameters:    Size  Location     Type
  1877 ;;  s               1   27[BANK0 ] PTR unsigned char 
  1878 ;;		 -> main@s(16), main@pkt(15), 
  1879 ;;  fmt             1   28[BANK0 ] PTR const unsigned char 
  1880 ;;		 -> STR_5(17), STR_4(9), 
  1881 ;; Auto vars:     Size  Location     Type
  1882 ;;  f              11   33[BANK0 ] struct _IO_FILE
  1883 ;;  ret             2    0        int 
  1884 ;;  ap              1   32[BANK0 ] PTR void [1]
  1885 ;;		 -> ?_sprintf(2), 
  1886 ;; Return value:  Size  Location     Type
  1887 ;;                  2   27[BANK0 ] int 
  1888 ;; Registers used:
  1889 ;;		wreg, fsr0l, fsr0h, status,2, status,0, pclath, cstack
  1890 ;; Tracked objects:
  1891 ;;		On entry : 0/0
  1892 ;;		On exit  : 0/0
  1893 ;;		Unchanged: 0/0
  1894 ;; Data sizes:     COMMON   BANK0   BANK1   BANK3   BANK2
  1895 ;;      Params:         0       4       0       0       0
  1896 ;;      Locals:         0      12       0       0       0
  1897 ;;      Temps:          0       1       0       0       0
  1898 ;;      Totals:         0      17       0       0       0
  1899 ;;Total ram usage:       17 bytes
  1900 ;; Hardware stack levels used: 1
  1901 ;; Hardware stack levels required when called: 5
  1902 ;; This function calls:
  1903 ;;		_vfprintf
  1904 ;; This function is called by:
  1905 ;;		_main
  1906 ;; This function uses a non-reentrant model
  1907 ;;
  1908                           
  1909     0ED9                     _sprintf:	
  1910                           ;psect for function _sprintf
  1911                           
  1912     0ED9                     l2145:	
  1913                           ;incstack = 0
  1914                           ; Regs used in _sprintf: [wreg-fsr0h+status,2+status,0+pclath+cstack]
  1915                           
  1916     0ED9  303D               	movlw	(low ((?_sprintf| 0+2)))& (0+255)
  1917     0EDA  1283               	bcf	3,5	;RP0=0, select bank0
  1918     0EDB  1303               	bcf	3,6	;RP1=0, select bank0
  1919     0EDC  00C0               	movwf	sprintf@ap
  1920     0EDD                     l2147:
  1921     0EDD  083B               	movf	sprintf@s,w
  1922     0EDE  00C1               	movwf	sprintf@f
  1923     0EDF  3000               	movlw	0
  1924     0EE0  00C2               	movwf	sprintf@f+1
  1925     0EE1                     l2149:
  1926     0EE1  01C3               	clrf	sprintf@f+2
  1927     0EE2  01C4               	clrf	sprintf@f+3
  1928     0EE3                     l2151:
  1929     0EE3  01CA               	clrf	sprintf@f+9
  1930     0EE4  01CB               	clrf	sprintf@f+10
  1931     0EE5                     l2153:
  1932     0EE5  3041               	movlw	low sprintf@f
  1933     0EE6  00B6               	movwf	vfprintf@fp
  1934     0EE7  3000               	movlw	high sprintf@f
  1935     0EE8  00B7               	movwf	vfprintf@fp+1
  1936     0EE9  083C               	movf	sprintf@fmt,w
  1937     0EEA  00B8               	movwf	vfprintf@fmt
  1938     0EEB  3040               	movlw	(low (sprintf@ap| 0))& (0+255)
  1939     0EEC  00B9               	movwf	vfprintf@ap
  1940     0EED  120A  158A  26B6  120A  158A  	fcall	_vfprintf
  1941     0EF2                     l2155:
  1942     0EF2  1283               	bcf	3,5	;RP0=0, select bank0
  1943     0EF3  1303               	bcf	3,6	;RP1=0, select bank0
  1944     0EF4  0843               	movf	sprintf@f+2,w
  1945     0EF5  073B               	addwf	sprintf@s,w
  1946     0EF6  00BF               	movwf	??_sprintf
  1947     0EF7  083F               	movf	??_sprintf,w
  1948     0EF8  0084               	movwf	4
  1949     0EF9  1383               	bcf	3,7	;select IRP bank0
  1950     0EFA  0180               	clrf	0
  1951     0EFB                     l743:
  1952     0EFB  0008               	return
  1953     0EFC                     __end_of_sprintf:
  1954                           
  1955                           	psect	text2
  1956     0EB6                     __ptext2:	
  1957 ;; *************** function _vfprintf *****************
  1958 ;; Defined at:
  1959 ;;		line 1817 in file "C:\Program Files\Microchip\xc8\v3.10\pic\sources\c99\common\doprnt.c"
  1960 ;; Parameters:    Size  Location     Type
  1961 ;;  fp              2   22[BANK0 ] PTR struct _IO_FILE
  1962 ;;		 -> sprintf@f(11), 
  1963 ;;  fmt             1   24[BANK0 ] PTR const unsigned char 
  1964 ;;		 -> STR_5(17), STR_4(9), 
  1965 ;;  ap              1   25[BANK0 ] PTR PTR void 
  1966 ;;		 -> sprintf@ap(1), 
  1967 ;; Auto vars:     Size  Location     Type
  1968 ;;  cfmt            1   26[BANK0 ] PTR unsigned char 
  1969 ;;		 -> STR_5(17), STR_4(9), 
  1970 ;; Return value:  Size  Location     Type
  1971 ;;                  2   22[BANK0 ] int 
  1972 ;; Registers used:
  1973 ;;		wreg, fsr0l, fsr0h, status,2, status,0, pclath, cstack
  1974 ;; Tracked objects:
  1975 ;;		On entry : 0/0
  1976 ;;		On exit  : 0/0
  1977 ;;		Unchanged: 0/0
  1978 ;; Data sizes:     COMMON   BANK0   BANK1   BANK3   BANK2
  1979 ;;      Params:         0       4       0       0       0
  1980 ;;      Locals:         0       1       0       0       0
  1981 ;;      Temps:          0       0       0       0       0
  1982 ;;      Totals:         0       5       0       0       0
  1983 ;;Total ram usage:        5 bytes
  1984 ;; Hardware stack levels used: 1
  1985 ;; Hardware stack levels required when called: 4
  1986 ;; This function calls:
  1987 ;;		_vfpfcnvrt
  1988 ;; This function is called by:
  1989 ;;		_sprintf
  1990 ;; This function uses a non-reentrant model
  1991 ;;
  1992                           
  1993     0EB6                     _vfprintf:	
  1994                           ;psect for function _vfprintf
  1995                           
  1996     0EB6                     l2125:	
  1997                           ;incstack = 0
  1998                           ; Regs used in _vfprintf: [wreg-fsr0h+status,2+status,0+pclath+cstack]
  1999                           
  2000                           
  2001                           ;C:\Program Files\Microchip\xc8\v3.10\pic\sources\c99\common\doprnt.c: 1817: int vfprint
      +                          f(FILE *fp, const char *fmt, va_list ap);C:\Program Files\Microchip\xc8\v3.10\pic\source
      +                          s\c99\common\doprnt.c: 1818: {;C:\Program Files\Microchip\xc8\v3.10\pic\sources\c99\comm
      +                          on\doprnt.c: 1820:     char *cfmt;;C:\Program Files\Microchip\xc8\v3.10\pic\sources\c99\
      +                          common\doprnt.c: 1822:     cfmt = (char *)fmt;
  2002     0EB6  1283               	bcf	3,5	;RP0=0, select bank0
  2003     0EB7  1303               	bcf	3,6	;RP1=0, select bank0
  2004     0EB8  0838               	movf	vfprintf@fmt,w
  2005     0EB9  00BA               	movwf	vfprintf@cfmt
  2006                           
  2007                           ;C:\Program Files\Microchip\xc8\v3.10\pic\sources\c99\common\doprnt.c: 1826:     while (
      +                          *cfmt) {
  2008     0EBA  2EC8               	goto	l2129
  2009     0EBB                     l2127:
  2010                           
  2011                           ;C:\Program Files\Microchip\xc8\v3.10\pic\sources\c99\common\doprnt.c: 1830:    vfpfcnvr
      +                          t(fp, &cfmt, ap);
  2012     0EBB  0836               	movf	vfprintf@fp,w
  2013     0EBC  00A9               	movwf	vfpfcnvrt@fp
  2014     0EBD  0837               	movf	vfprintf@fp+1,w
  2015     0EBE  00AA               	movwf	vfpfcnvrt@fp+1
  2016     0EBF  303A               	movlw	(low (vfprintf@cfmt| 0))& (0+255)
  2017     0EC0  00AB               	movwf	vfpfcnvrt@fmt
  2018     0EC1  0839               	movf	vfprintf@ap,w
  2019     0EC2  00AC               	movwf	vfpfcnvrt@ap
  2020     0EC3  120A  118A  2325  120A  158A  	fcall	_vfpfcnvrt
  2021     0EC8                     l2129:
  2022                           
  2023                           ;C:\Program Files\Microchip\xc8\v3.10\pic\sources\c99\common\doprnt.c: 1826:     while (
      +                          *cfmt) {
  2024     0EC8  1283               	bcf	3,5	;RP0=0, select bank0
  2025     0EC9  1303               	bcf	3,6	;RP1=0, select bank0
  2026     0ECA  083A               	movf	vfprintf@cfmt,w
  2027     0ECB  0084               	movwf	4
  2028     0ECC  120A  118A  2418  120A  158A  	fcall	stringdir
  2029     0ED1  3A00               	xorlw	0
  2030     0ED2  1D03               	skipz
  2031     0ED3  2ED5               	goto	u2201
  2032     0ED4  2ED6               	goto	u2200
  2033     0ED5                     u2201:
  2034     0ED5  2EBB               	goto	l2127
  2035     0ED6                     u2200:
  2036     0ED6                     l2131:
  2037                           
  2038                           ;C:\Program Files\Microchip\xc8\v3.10\pic\sources\c99\common\doprnt.c: 1835:  return 0;
  2039     0ED6  01B6               	clrf	?_vfprintf
  2040     0ED7  01B7               	clrf	?_vfprintf+1
  2041     0ED8                     l787:
  2042     0ED8  0008               	return
  2043     0ED9                     __end_of_vfprintf:
  2044                           
  2045                           	psect	text3
  2046     0325                     __ptext3:	
  2047 ;; *************** function _vfpfcnvrt *****************
  2048 ;; Defined at:
  2049 ;;		line 1177 in file "C:\Program Files\Microchip\xc8\v3.10\pic\sources\c99\common\doprnt.c"
  2050 ;; Parameters:    Size  Location     Type
  2051 ;;  fp              2    9[BANK0 ] PTR struct _IO_FILE
  2052 ;;		 -> sprintf@f(11), 
  2053 ;;  fmt             1   11[BANK0 ] PTR PTR unsigned char 
  2054 ;;		 -> vfprintf@cfmt(1), 
  2055 ;;  ap              1   12[BANK0 ] PTR PTR void 
  2056 ;;		 -> sprintf@ap(1), 
  2057 ;; Auto vars:     Size  Location     Type
  2058 ;;  convarg         4   17[BANK0 ] struct .
  2059 ;;  c               1   21[BANK0 ] unsigned char 
  2060 ;;  cp              1   16[BANK0 ] PTR unsigned char 
  2061 ;;		 -> STR_5(17), STR_4(9), 
  2062 ;;  done            1   15[BANK0 ] _Bool 
  2063 ;; Return value:  Size  Location     Type
  2064 ;;                  1    wreg      void 
  2065 ;; Registers used:
  2066 ;;		wreg, fsr0l, fsr0h, status,2, status,0, pclath, cstack
  2067 ;; Tracked objects:
  2068 ;;		On entry : 0/0
  2069 ;;		On exit  : 0/0
  2070 ;;		Unchanged: 0/0
  2071 ;; Data sizes:     COMMON   BANK0   BANK1   BANK3   BANK2
  2072 ;;      Params:         0       4       0       0       0
  2073 ;;      Locals:         0       7       0       0       0
  2074 ;;      Temps:          0       2       0       0       0
  2075 ;;      Totals:         0      13       0       0       0
  2076 ;;Total ram usage:       13 bytes
  2077 ;; Hardware stack levels used: 1
  2078 ;; Hardware stack levels required when called: 3
  2079 ;; This function calls:
  2080 ;;		___awdiv
  2081 ;;		___awmod
  2082 ;;		_abs
  2083 ;;		_fputc
  2084 ;; This function is called by:
  2085 ;;		_vfprintf
  2086 ;; This function uses a non-reentrant model
  2087 ;;
  2088                           
  2089     0325                     _vfpfcnvrt:	
  2090                           ;psect for function _vfpfcnvrt
  2091                           
  2092     0325                     l2035:	
  2093                           ;incstack = 0
  2094                           ; Regs used in _vfpfcnvrt: [wreg-fsr0h+status,2+status,0+pclath+cstack]
  2095                           
  2096                           
  2097                           ;C:\Program Files\Microchip\xc8\v3.10\pic\sources\c99\common\doprnt.c: 1177: vfpfcnvrt(F
      +                          ILE *fp, char *fmt[], va_list ap);C:\Program Files\Microchip\xc8\v3.10\pic\sources\c99\c
      +                          ommon\doprnt.c: 1178: {;C:\Program Files\Microchip\xc8\v3.10\pic\sources\c99\common\dopr
      +                          nt.c: 1179:     char c, *cp;;C:\Program Files\Microchip\xc8\v3.10\pic\sources\c99\common
      +                          \doprnt.c: 1180:     _Bool done;;C:\Program Files\Microchip\xc8\v3.10\pic\sources\c99\co
      +                          mmon\doprnt.c: 1188:  } convarg;;C:\Program Files\Microchip\xc8\v3.10\pic\sources\c99\co
      +                          mmon\doprnt.c: 1201:     if ((*fmt)[0] == '%') {
  2098     0325  1283               	bcf	3,5	;RP0=0, select bank0
  2099     0326  1303               	bcf	3,6	;RP1=0, select bank0
  2100     0327  082B               	movf	vfpfcnvrt@fmt,w
  2101     0328  0084               	movwf	4
  2102     0329  1383               	bcf	3,7	;select IRP bank0
  2103     032A  0800               	movf	0,w
  2104     032B  0084               	movwf	4
  2105     032C  120A  118A  2418  120A  118A  	fcall	stringdir
  2106     0331  3A25               	xorlw	37
  2107     0332  1D03               	skipz
  2108     0333  2B35               	goto	u2001
  2109     0334  2B36               	goto	u2000
  2110     0335                     u2001:
  2111     0335  2BF4               	goto	l2079
  2112     0336                     u2000:
  2113     0336                     l2037:
  2114                           
  2115                           ;C:\Program Files\Microchip\xc8\v3.10\pic\sources\c99\common\doprnt.c: 1202:         ++*
      +                          fmt;
  2116     0336  082B               	movf	vfpfcnvrt@fmt,w
  2117     0337  0084               	movwf	4
  2118     0338  3001               	movlw	1
  2119     0339  0780               	addwf	0,f
  2120     033A                     l2039:
  2121                           
  2122                           ;C:\Program Files\Microchip\xc8\v3.10\pic\sources\c99\common\doprnt.c: 1204:         fla
      +                          gs = width = 0;
  2123     033A  01E3               	clrf	_width
  2124     033B  01E4               	clrf	_width+1
  2125     033C  3000               	movlw	0
  2126     033D  00E9               	movwf	_flags
  2127     033E                     l2041:
  2128                           
  2129                           ;C:\Program Files\Microchip\xc8\v3.10\pic\sources\c99\common\doprnt.c: 1205:         pre
      +                          c = -1;
  2130     033E  30FF               	movlw	255
  2131     033F  00E5               	movwf	_prec
  2132     0340  30FF               	movlw	255
  2133     0341  00E6               	movwf	_prec+1
  2134     0342                     l2043:
  2135                           
  2136                           ;C:\Program Files\Microchip\xc8\v3.10\pic\sources\c99\common\doprnt.c: 1291:   cp = *fmt
      +                          ;
  2137     0342  082B               	movf	vfpfcnvrt@fmt,w
  2138     0343  0084               	movwf	4
  2139     0344  0800               	movf	0,w
  2140     0345  00B0               	movwf	vfpfcnvrt@cp
  2141     0346                     l2045:
  2142                           
  2143                           ;C:\Program Files\Microchip\xc8\v3.10\pic\sources\c99\common\doprnt.c: 1361:   if (*cp =
      +                          = 'd' || *cp == 'i') {
  2144     0346  0830               	movf	vfpfcnvrt@cp,w
  2145     0347  0084               	movwf	4
  2146     0348  120A  118A  2418  120A  118A  	fcall	stringdir
  2147     034D  3A64               	xorlw	100
  2148     034E  1903               	skipnz
  2149     034F  2B51               	goto	u2011
  2150     0350  2B52               	goto	u2010
  2151     0351                     u2011:
  2152     0351  2B5E               	goto	l2049
  2153     0352                     u2010:
  2154     0352                     l2047:
  2155     0352  0830               	movf	vfpfcnvrt@cp,w
  2156     0353  0084               	movwf	4
  2157     0354  120A  118A  2418  120A  118A  	fcall	stringdir
  2158     0359  3A69               	xorlw	105
  2159     035A  1D03               	skipz
  2160     035B  2B5D               	goto	u2021
  2161     035C  2B5E               	goto	u2020
  2162     035D                     u2021:
  2163     035D  2BEC               	goto	l2075
  2164     035E                     u2020:
  2165     035E                     l2049:
  2166                           
  2167                           ;C:\Program Files\Microchip\xc8\v3.10\pic\sources\c99\common\doprnt.c: 1404:    convarg.
      +                          sint = (vfpf_sint_t)(int)(*(int *)__va_arg(*(int **)ap, (int)0));
  2168     035E  082C               	movf	vfpfcnvrt@ap,w
  2169     035F  0084               	movwf	4
  2170     0360  0800               	movf	0,w
  2171     0361  00AD               	movwf	??_vfpfcnvrt
  2172     0362  3002               	movlw	2
  2173     0363  0780               	addwf	0,f
  2174     0364  082D               	movf	??_vfpfcnvrt,w
  2175     0365  0084               	movwf	4
  2176     0366  0800               	movf	0,w
  2177     0367  00B1               	movwf	vfpfcnvrt@convarg
  2178     0368  0A84               	incf	4,f
  2179     0369  0800               	movf	0,w
  2180     036A  00B2               	movwf	vfpfcnvrt@convarg+1
  2181                           
  2182                           ;C:\Program Files\Microchip\xc8\v3.10\pic\sources\c99\common\doprnt.c: 1406:    *fmt = c
      +                          p+1;
  2183     036B  082B               	movf	vfpfcnvrt@fmt,w
  2184     036C  0084               	movwf	4
  2185     036D  0830               	movf	vfpfcnvrt@cp,w
  2186     036E  3E01               	addlw	1
  2187     036F  0080               	movwf	0
  2188     0370                     l2051:
  2189                           
  2190                           ;C:\Program Files\Microchip\xc8\v3.10\pic\sources\c99\common\doprnt.c: 1408:    c = size
      +                          of(dbuf);
  2191     0370  3020               	movlw	32
  2192     0371  00B5               	movwf	vfpfcnvrt@c
  2193     0372                     l2053:
  2194                           
  2195                           ;C:\Program Files\Microchip\xc8\v3.10\pic\sources\c99\common\doprnt.c: 1409:    done = c
      +                          onvarg.sint < 0;
  2196     0372  1BB2               	btfsc	vfpfcnvrt@convarg+1,7
  2197     0373  2B75               	goto	u2031
  2198     0374  2B77               	goto	u2030
  2199     0375                     u2031:
  2200     0375  3001               	movlw	1
  2201     0376  2B78               	goto	u2040
  2202     0377                     u2030:
  2203     0377  3000               	movlw	0
  2204     0378                     u2040:
  2205     0378  00AF               	movwf	vfpfcnvrt@done
  2206     0379                     l2055:
  2207                           
  2208                           ;C:\Program Files\Microchip\xc8\v3.10\pic\sources\c99\common\doprnt.c: 1411:     dbuf[--
      +                          c] = abs(convarg.sint % 10) + '0';
  2209     0379  3001               	movlw	1
  2210     037A  02B5               	subwf	vfpfcnvrt@c,f
  2211     037B  0835               	movf	vfpfcnvrt@c,w
  2212     037C  3EC6               	addlw	(low (_dbuf| 0))& (0+255)
  2213     037D  0084               	movwf	4
  2214     037E  300A               	movlw	10
  2215     037F  00F3               	movwf	___awmod@divisor
  2216     0380  3000               	movlw	0
  2217     0381  00F4               	movwf	___awmod@divisor+1
  2218     0382  0832               	movf	vfpfcnvrt@convarg+1,w
  2219     0383  00F6               	movwf	___awmod@dividend+1
  2220     0384  0831               	movf	vfpfcnvrt@convarg,w
  2221     0385  00F5               	movwf	___awmod@dividend
  2222     0386  120A  158A  27A9  120A  118A  	fcall	___awmod
  2223     038B  0874               	movf	?___awmod+1,w
  2224     038C  1283               	bcf	3,5	;RP0=0, select bank0
  2225     038D  1303               	bcf	3,6	;RP1=0, select bank0
  2226     038E  00A1               	movwf	abs@a+1
  2227     038F  0873               	movf	?___awmod,w
  2228     0390  00A0               	movwf	abs@a
  2229     0391  120A  158A  2653  120A  118A  	fcall	_abs
  2230     0396  1283               	bcf	3,5	;RP0=0, select bank0
  2231     0397  1303               	bcf	3,6	;RP1=0, select bank0
  2232     0398  0820               	movf	?_abs,w
  2233     0399  3E30               	addlw	48
  2234     039A  1383               	bcf	3,7	;select IRP bank1
  2235     039B  0080               	movwf	0
  2236     039C                     l2057:
  2237                           
  2238                           ;C:\Program Files\Microchip\xc8\v3.10\pic\sources\c99\common\doprnt.c: 1412:     convarg
      +                          .sint /= 10;
  2239     039C  300A               	movlw	10
  2240     039D  00F3               	movwf	___awdiv@divisor
  2241     039E  3000               	movlw	0
  2242     039F  00F4               	movwf	___awdiv@divisor+1
  2243     03A0  0832               	movf	vfpfcnvrt@convarg+1,w
  2244     03A1  00F6               	movwf	___awdiv@dividend+1
  2245     03A2  0831               	movf	vfpfcnvrt@convarg,w
  2246     03A3  00F5               	movwf	___awdiv@dividend
  2247     03A4  120A  118A  26F0  120A  118A  	fcall	___awdiv
  2248     03A9  0874               	movf	?___awdiv+1,w
  2249     03AA  1283               	bcf	3,5	;RP0=0, select bank0
  2250     03AB  1303               	bcf	3,6	;RP1=0, select bank0
  2251     03AC  00B2               	movwf	vfpfcnvrt@convarg+1
  2252     03AD  0873               	movf	?___awdiv,w
  2253     03AE  00B1               	movwf	vfpfcnvrt@convarg
  2254     03AF                     l2059:
  2255                           
  2256                           ;C:\Program Files\Microchip\xc8\v3.10\pic\sources\c99\common\doprnt.c: 1416:    } while 
      +                          (convarg.sint != 0 && c != 0);
  2257     03AF  0831               	movf	vfpfcnvrt@convarg,w
  2258     03B0  0432               	iorwf	vfpfcnvrt@convarg+1,w
  2259     03B1  1903               	btfsc	3,2
  2260     03B2  2BB4               	goto	u2051
  2261     03B3  2BB5               	goto	u2050
  2262     03B4                     u2051:
  2263     03B4  2BBA               	goto	l2063
  2264     03B5                     u2050:
  2265     03B5                     l2061:
  2266     03B5  0835               	movf	vfpfcnvrt@c,w
  2267     03B6  1D03               	btfss	3,2
  2268     03B7  2BB9               	goto	u2061
  2269     03B8  2BBA               	goto	u2060
  2270     03B9                     u2061:
  2271     03B9  2B79               	goto	l2055
  2272     03BA                     u2060:
  2273     03BA                     l2063:
  2274                           
  2275                           ;C:\Program Files\Microchip\xc8\v3.10\pic\sources\c99\common\doprnt.c: 1417:    if (c !=
      +                           0 && done) {
  2276     03BA  0835               	movf	vfpfcnvrt@c,w
  2277     03BB  1903               	btfsc	3,2
  2278     03BC  2BBE               	goto	u2071
  2279     03BD  2BBF               	goto	u2070
  2280     03BE                     u2071:
  2281     03BE  2BE5               	goto	l2073
  2282     03BF                     u2070:
  2283     03BF                     l2065:
  2284     03BF  082F               	movf	vfpfcnvrt@done,w
  2285     03C0  1903               	btfsc	3,2
  2286     03C1  2BC3               	goto	u2081
  2287     03C2  2BC4               	goto	u2080
  2288     03C3                     u2081:
  2289     03C3  2BE5               	goto	l2073
  2290     03C4                     u2080:
  2291     03C4                     l2067:
  2292                           
  2293                           ;C:\Program Files\Microchip\xc8\v3.10\pic\sources\c99\common\doprnt.c: 1418:     dbuf[--
      +                          c] = '-';
  2294     03C4  3001               	movlw	1
  2295     03C5  02B5               	subwf	vfpfcnvrt@c,f
  2296     03C6  0835               	movf	vfpfcnvrt@c,w
  2297     03C7  3EC6               	addlw	(low (_dbuf| 0))& (0+255)
  2298     03C8  0084               	movwf	4
  2299     03C9  302D               	movlw	45
  2300     03CA  1383               	bcf	3,7	;select IRP bank1
  2301     03CB  0080               	movwf	0
  2302     03CC  2BE5               	goto	l2073
  2303     03CD                     l2069:
  2304                           
  2305                           ;C:\Program Files\Microchip\xc8\v3.10\pic\sources\c99\common\doprnt.c: 1424:     fputc(d
      +                          buf[c++], fp);
  2306     03CD  0835               	movf	vfpfcnvrt@c,w
  2307     03CE  3EC6               	addlw	(low (_dbuf| 0))& (0+255)
  2308     03CF  0084               	movwf	4
  2309     03D0  1383               	bcf	3,7	;select IRP bank1
  2310     03D1  0800               	movf	0,w
  2311     03D2  00AD               	movwf	??_vfpfcnvrt
  2312     03D3  01AE               	clrf	??_vfpfcnvrt+1
  2313     03D4  082D               	movf	??_vfpfcnvrt,w
  2314     03D5  00F3               	movwf	fputc@c
  2315     03D6  082E               	movf	??_vfpfcnvrt+1,w
  2316     03D7  00F4               	movwf	fputc@c+1
  2317     03D8  0829               	movf	vfpfcnvrt@fp,w
  2318     03D9  00F5               	movwf	fputc@fp
  2319     03DA  082A               	movf	vfpfcnvrt@fp+1,w
  2320     03DB  00F6               	movwf	fputc@fp+1
  2321     03DC  120A  118A  24CA  120A  118A  	fcall	_fputc
  2322     03E1                     l2071:
  2323     03E1  3001               	movlw	1
  2324     03E2  1283               	bcf	3,5	;RP0=0, select bank0
  2325     03E3  1303               	bcf	3,6	;RP1=0, select bank0
  2326     03E4  07B5               	addwf	vfpfcnvrt@c,f
  2327     03E5                     l2073:
  2328                           
  2329                           ;C:\Program Files\Microchip\xc8\v3.10\pic\sources\c99\common\doprnt.c: 1423:    while (c
      +                           != sizeof(dbuf)) {
  2330     03E5  3020               	movlw	32
  2331     03E6  0635               	xorwf	vfpfcnvrt@c,w
  2332     03E7  1D03               	btfss	3,2
  2333     03E8  2BEA               	goto	u2091
  2334     03E9  2BEB               	goto	u2090
  2335     03EA                     u2091:
  2336     03EA  2BCD               	goto	l2069
  2337     03EB                     u2090:
  2338     03EB  2C0D               	goto	l781
  2339     03EC                     l2075:
  2340                           
  2341                           ;C:\Program Files\Microchip\xc8\v3.10\pic\sources\c99\common\doprnt.c: 1806:         ++*
      +                          fmt;
  2342     03EC  1283               	bcf	3,5	;RP0=0, select bank0
  2343     03ED  1303               	bcf	3,6	;RP1=0, select bank0
  2344     03EE  082B               	movf	vfpfcnvrt@fmt,w
  2345     03EF  0084               	movwf	4
  2346     03F0  3001               	movlw	1
  2347     03F1  1383               	bcf	3,7	;select IRP bank0
  2348     03F2  0780               	addwf	0,f
  2349     03F3  2C0D               	goto	l781
  2350     03F4                     l2079:
  2351                           
  2352                           ;C:\Program Files\Microchip\xc8\v3.10\pic\sources\c99\common\doprnt.c: 1811:     fputc((
      +                          int)(*fmt)[0], fp);
  2353     03F4  082B               	movf	vfpfcnvrt@fmt,w
  2354     03F5  0084               	movwf	4
  2355     03F6  0800               	movf	0,w
  2356     03F7  0084               	movwf	4
  2357     03F8  120A  118A  2418  120A  118A  	fcall	stringdir
  2358     03FD  00AD               	movwf	??_vfpfcnvrt
  2359     03FE  01AE               	clrf	??_vfpfcnvrt+1
  2360     03FF  082D               	movf	??_vfpfcnvrt,w
  2361     0400  00F3               	movwf	fputc@c
  2362     0401  082E               	movf	??_vfpfcnvrt+1,w
  2363     0402  00F4               	movwf	fputc@c+1
  2364     0403  0829               	movf	vfpfcnvrt@fp,w
  2365     0404  00F5               	movwf	fputc@fp
  2366     0405  082A               	movf	vfpfcnvrt@fp+1,w
  2367     0406  00F6               	movwf	fputc@fp+1
  2368     0407  120A  118A  24CA  120A  118A  	fcall	_fputc
  2369     040C  2BEC               	goto	l2075
  2370     040D                     l781:
  2371     040D  0008               	return
  2372     040E                     __end_of_vfpfcnvrt:
  2373                           
  2374                           	psect	text4
  2375     04CA                     __ptext4:	
  2376 ;; *************** function _fputc *****************
  2377 ;; Defined at:
  2378 ;;		line 8 in file "C:\Program Files\Microchip\xc8\v3.10\pic\sources\c99\common\nf_fputc.c"
  2379 ;; Parameters:    Size  Location     Type
  2380 ;;  c               2    3[COMMON] int 
  2381 ;;  fp              2    5[COMMON] PTR struct _IO_FILE
  2382 ;;		 -> sprintf@f(11), 
  2383 ;; Auto vars:     Size  Location     Type
  2384 ;;		None
  2385 ;; Return value:  Size  Location     Type
  2386 ;;                  2    3[COMMON] int 
  2387 ;; Registers used:
  2388 ;;		wreg, fsr0l, fsr0h, status,2, status,0, pclath, cstack
  2389 ;; Tracked objects:
  2390 ;;		On entry : 0/0
  2391 ;;		On exit  : 0/0
  2392 ;;		Unchanged: 0/0
  2393 ;; Data sizes:     COMMON   BANK0   BANK1   BANK3   BANK2
  2394 ;;      Params:         4       0       0       0       0
  2395 ;;      Locals:         0       0       0       0       0
  2396 ;;      Temps:          0       9       0       0       0
  2397 ;;      Totals:         4       9       0       0       0
  2398 ;;Total ram usage:       13 bytes
  2399 ;; Hardware stack levels used: 1
  2400 ;; Hardware stack levels required when called: 2
  2401 ;; This function calls:
  2402 ;;		_putch
  2403 ;; This function is called by:
  2404 ;;		_vfpfcnvrt
  2405 ;; This function uses a non-reentrant model
  2406 ;;
  2407                           
  2408     04CA                     _fputc:	
  2409                           ;psect for function _fputc
  2410                           
  2411     04CA                     l1483:	
  2412                           ;incstack = 0
  2413                           ; Regs used in _fputc: [wreg-fsr0h+status,2+status,0+pclath+cstack]
  2414                           
  2415     04CA  0875               	movf	fputc@fp,w
  2416     04CB  0476               	iorwf	fputc@fp+1,w
  2417     04CC  1903               	btfsc	3,2
  2418     04CD  2CCF               	goto	u1141
  2419     04CE  2CD0               	goto	u1140
  2420     04CF                     u1141:
  2421     04CF  2CD6               	goto	l1487
  2422     04D0                     u1140:
  2423     04D0                     l1485:
  2424     04D0  0875               	movf	fputc@fp,w
  2425     04D1  0476               	iorwf	fputc@fp+1,w
  2426     04D2  1D03               	btfss	3,2
  2427     04D3  2CD5               	goto	u1151
  2428     04D4  2CD6               	goto	u1150
  2429     04D5                     u1151:
  2430     04D5  2CDD               	goto	l1489
  2431     04D6                     u1150:
  2432     04D6                     l1487:
  2433     04D6  0873               	movf	fputc@c,w
  2434     04D7  120A  118A  27FD  120A  118A  	fcall	_putch
  2435     04DC  2D69               	goto	l806
  2436     04DD                     l1489:
  2437     04DD  0875               	movf	fputc@fp,w
  2438     04DE  3E09               	addlw	9
  2439     04DF  1283               	bcf	3,5	;RP0=0, select bank0
  2440     04E0  1303               	bcf	3,6	;RP1=0, select bank0
  2441     04E1  00A0               	movwf	??_fputc
  2442     04E2  0876               	movf	fputc@fp+1,w
  2443     04E3  1803               	skipnc
  2444     04E4  3E01               	addlw	1
  2445     04E5  3E00               	addlw	0
  2446     04E6  00A1               	movwf	??_fputc+1
  2447     04E7  0820               	movf	??_fputc,w
  2448     04E8  0084               	movwf	4
  2449     04E9  1783               	bsf	3,7
  2450     04EA  1C21               	btfss	??_fputc+1,0
  2451     04EB  1383               	bcf	3,7
  2452     04EC  0800               	movf	0,w
  2453     04ED  00A2               	movwf	??_fputc+2
  2454     04EE  0A84               	incf	4,f
  2455     04EF  0800               	movf	0,w
  2456     04F0  00A3               	movwf	??_fputc+3
  2457     04F1  0822               	movf	??_fputc+2,w
  2458     04F2  0423               	iorwf	??_fputc+3,w
  2459     04F3  1903               	btfsc	3,2
  2460     04F4  2CF6               	goto	u1161
  2461     04F5  2CF7               	goto	u1160
  2462     04F6                     u1161:
  2463     04F6  2D29               	goto	l1493
  2464     04F7                     u1160:
  2465     04F7                     l1491:
  2466     04F7  0875               	movf	fputc@fp,w
  2467     04F8  3E09               	addlw	9
  2468     04F9  00A0               	movwf	??_fputc
  2469     04FA  0876               	movf	fputc@fp+1,w
  2470     04FB  1803               	skipnc
  2471     04FC  3E01               	addlw	1
  2472     04FD  3E00               	addlw	0
  2473     04FE  00A1               	movwf	??_fputc+1
  2474     04FF  0820               	movf	??_fputc,w
  2475     0500  0084               	movwf	4
  2476     0501  1783               	bsf	3,7
  2477     0502  1C21               	btfss	??_fputc+1,0
  2478     0503  1383               	bcf	3,7
  2479     0504  0800               	movf	0,w
  2480     0505  00A2               	movwf	??_fputc+2
  2481     0506  0A84               	incf	4,f
  2482     0507  0800               	movf	0,w
  2483     0508  00A3               	movwf	??_fputc+3
  2484     0509  0875               	movf	fputc@fp,w
  2485     050A  3E02               	addlw	2
  2486     050B  00A4               	movwf	??_fputc+4
  2487     050C  0876               	movf	fputc@fp+1,w
  2488     050D  1803               	skipnc
  2489     050E  3E01               	addlw	1
  2490     050F  3E00               	addlw	0
  2491     0510  00A5               	movwf	??_fputc+5
  2492     0511  0824               	movf	??_fputc+4,w
  2493     0512  0084               	movwf	4
  2494     0513  1783               	bsf	3,7
  2495     0514  1C25               	btfss	??_fputc+5,0
  2496     0515  1383               	bcf	3,7
  2497     0516  0800               	movf	0,w
  2498     0517  00A6               	movwf	??_fputc+6
  2499     0518  0A84               	incf	4,f
  2500     0519  0800               	movf	0,w
  2501     051A  00A7               	movwf	??_fputc+7
  2502     051B  0827               	movf	??_fputc+7,w
  2503     051C  3A80               	xorlw	128
  2504     051D  00A8               	movwf	??_fputc+8
  2505     051E  0823               	movf	??_fputc+3,w
  2506     051F  3A80               	xorlw	128
  2507     0520  0228               	subwf	??_fputc+8,w
  2508     0521  1D03               	skipz
  2509     0522  2D25               	goto	u1175
  2510     0523  0822               	movf	??_fputc+2,w
  2511     0524  0226               	subwf	??_fputc+6,w
  2512     0525                     u1175:
  2513     0525  1803               	skipnc
  2514     0526  2D28               	goto	u1171
  2515     0527  2D29               	goto	u1170
  2516     0528                     u1171:
  2517     0528  2D69               	goto	l806
  2518     0529                     u1170:
  2519     0529                     l1493:
  2520     0529  0875               	movf	fputc@fp,w
  2521     052A  0084               	movwf	4
  2522     052B  1783               	bsf	3,7
  2523     052C  1C76               	btfss	fputc@fp+1,0
  2524     052D  1383               	bcf	3,7
  2525     052E  0800               	movf	0,w
  2526     052F  1283               	bcf	3,5	;RP0=0, select bank0
  2527     0530  1303               	bcf	3,6	;RP1=0, select bank0
  2528     0531  00A0               	movwf	??_fputc
  2529     0532  0A84               	incf	4,f
  2530     0533  0800               	movf	0,w
  2531     0534  00A1               	movwf	??_fputc+1
  2532     0535  0875               	movf	fputc@fp,w
  2533     0536  3E02               	addlw	2
  2534     0537  00A2               	movwf	??_fputc+2
  2535     0538  0876               	movf	fputc@fp+1,w
  2536     0539  1803               	skipnc
  2537     053A  3E01               	addlw	1
  2538     053B  3E00               	addlw	0
  2539     053C  00A3               	movwf	??_fputc+3
  2540     053D  0822               	movf	??_fputc+2,w
  2541     053E  0084               	movwf	4
  2542     053F  1783               	bsf	3,7
  2543     0540  1C23               	btfss	??_fputc+3,0
  2544     0541  1383               	bcf	3,7
  2545     0542  0800               	movf	0,w
  2546     0543  0720               	addwf	??_fputc,w
  2547     0544  00A5               	movwf	??_fputc+5
  2548     0545  0821               	movf	??_fputc+1,w
  2549     0546  00A4               	movwf	??_fputc+4
  2550     0547  1803               	skipnc
  2551     0548  0AA4               	incf	??_fputc+4,f
  2552     0549  1F80               	btfss	0,7
  2553     054A  2D4C               	goto	u1180
  2554     054B  03A4               	decf	??_fputc+4,f
  2555     054C                     u1180:
  2556     054C  1283               	bcf	3,5	;RP0=0, select bank0
  2557     054D  1303               	bcf	3,6	;RP1=0, select bank0
  2558     054E  0824               	movf	??_fputc+4,w
  2559     054F  00A6               	movwf	??_fputc+6
  2560     0550  0825               	movf	??_fputc+5,w
  2561     0551  0084               	movwf	4
  2562     0552  1783               	bsf	3,7
  2563     0553  1C26               	btfss	??_fputc+6,0
  2564     0554  1383               	bcf	3,7
  2565     0555  0873               	movf	fputc@c,w
  2566     0556  0080               	movwf	0
  2567     0557  0875               	movf	fputc@fp,w
  2568     0558  3E02               	addlw	2
  2569     0559  00A0               	movwf	??_fputc
  2570     055A  0876               	movf	fputc@fp+1,w
  2571     055B  1803               	skipnc
  2572     055C  3E01               	addlw	1
  2573     055D  3E00               	addlw	0
  2574     055E  00A1               	movwf	??_fputc+1
  2575     055F  0820               	movf	??_fputc,w
  2576     0560  0084               	movwf	4
  2577     0561  1783               	bsf	3,7
  2578     0562  1C21               	btfss	??_fputc+1,0
  2579     0563  1383               	bcf	3,7
  2580     0564  3001               	movlw	1
  2581     0565  0780               	addwf	0,f
  2582     0566  0A84               	incf	4,f
  2583     0567  1803               	skipnc
  2584     0568  0A80               	incf	0,f
  2585     0569                     l806:
  2586     0569  0008               	return
  2587     056A                     __end_of_fputc:
  2588                           
  2589                           	psect	text5
  2590     07FD                     __ptext5:	
  2591 ;; *************** function _putch *****************
  2592 ;; Defined at:
  2593 ;;		line 7 in file "C:\Program Files\Microchip\xc8\v3.10\pic\sources\c99\common\putch.c"
  2594 ;; Parameters:    Size  Location     Type
  2595 ;;  c               1    wreg     unsigned char 
  2596 ;; Auto vars:     Size  Location     Type
  2597 ;;  c               1    0[COMMON] unsigned char 
  2598 ;; Return value:  Size  Location     Type
  2599 ;;                  1    wreg      void 
  2600 ;; Registers used:
  2601 ;;		wreg
  2602 ;; Tracked objects:
  2603 ;;		On entry : 0/0
  2604 ;;		On exit  : 0/0
  2605 ;;		Unchanged: 0/0
  2606 ;; Data sizes:     COMMON   BANK0   BANK1   BANK3   BANK2
  2607 ;;      Params:         0       0       0       0       0
  2608 ;;      Locals:         0       0       0       0       0
  2609 ;;      Temps:          0       0       0       0       0
  2610 ;;      Totals:         0       0       0       0       0
  2611 ;;Total ram usage:        0 bytes
  2612 ;; Hardware stack levels used: 1
  2613 ;; Hardware stack levels required when called: 1
  2614 ;; This function calls:
  2615 ;;		Nothing
  2616 ;; This function is called by:
  2617 ;;		_fputc
  2618 ;; This function uses a non-reentrant model
  2619 ;;
  2620                           
  2621     07FD                     _putch:	
  2622                           ;psect for function _putch
  2623                           
  2624     07FD                     l817:	
  2625                           ;incstack = 0
  2626                           ; Regs used in _putch: [wreg]
  2627                           
  2628     07FD  0008               	return
  2629     07FE                     __end_of_putch:
  2630                           
  2631                           	psect	text6
  2632     0E53                     __ptext6:	
  2633 ;; *************** function _abs *****************
  2634 ;; Defined at:
  2635 ;;		line 1 in file "C:\Program Files\Microchip\xc8\v3.10\pic\sources\c99\common\abs.c"
  2636 ;; Parameters:    Size  Location     Type
  2637 ;;  a               2    0[BANK0 ] int 
  2638 ;; Auto vars:     Size  Location     Type
  2639 ;;		None
  2640 ;; Return value:  Size  Location     Type
  2641 ;;                  2    0[BANK0 ] int 
  2642 ;; Registers used:
  2643 ;;		wreg, status,2, status,0
  2644 ;; Tracked objects:
  2645 ;;		On entry : 0/0
  2646 ;;		On exit  : 0/0
  2647 ;;		Unchanged: 0/0
  2648 ;; Data sizes:     COMMON   BANK0   BANK1   BANK3   BANK2
  2649 ;;      Params:         0       2       0       0       0
  2650 ;;      Locals:         0       0       0       0       0
  2651 ;;      Temps:          0       2       0       0       0
  2652 ;;      Totals:         0       4       0       0       0
  2653 ;;Total ram usage:        4 bytes
  2654 ;; Hardware stack levels used: 1
  2655 ;; Hardware stack levels required when called: 1
  2656 ;; This function calls:
  2657 ;;		Nothing
  2658 ;; This function is called by:
  2659 ;;		_vfpfcnvrt
  2660 ;; This function uses a non-reentrant model
  2661 ;;
  2662                           
  2663     0E53                     _abs:	
  2664                           ;psect for function _abs
  2665                           
  2666     0E53                     l2027:	
  2667                           ;incstack = 0
  2668                           ; Regs used in _abs: [wreg+status,2+status,0]
  2669                           
  2670     0E53  1283               	bcf	3,5	;RP0=0, select bank0
  2671     0E54  1303               	bcf	3,6	;RP1=0, select bank0
  2672     0E55  1BA1               	btfsc	abs@a+1,7
  2673     0E56  2E58               	goto	u1991
  2674     0E57  2E59               	goto	u1990
  2675     0E58                     u1991:
  2676     0E58  2E5A               	goto	l2031
  2677     0E59                     u1990:
  2678     0E59                     l2029:
  2679     0E59  2E65               	goto	l794
  2680     0E5A                     l2031:
  2681     0E5A  0920               	comf	abs@a,w
  2682     0E5B  00A2               	movwf	??_abs
  2683     0E5C  0921               	comf	abs@a+1,w
  2684     0E5D  00A3               	movwf	??_abs+1
  2685     0E5E  0AA2               	incf	??_abs,f
  2686     0E5F  1903               	skipnz
  2687     0E60  0AA3               	incf	??_abs+1,f
  2688     0E61  0822               	movf	??_abs,w
  2689     0E62  00A0               	movwf	?_abs
  2690     0E63  0823               	movf	??_abs+1,w
  2691     0E64  00A1               	movwf	?_abs+1
  2692     0E65                     l794:
  2693     0E65  0008               	return
  2694     0E66                     __end_of_abs:
  2695                           
  2696                           	psect	text7
  2697     0FA9                     __ptext7:	
  2698 ;; *************** function ___awmod *****************
  2699 ;; Defined at:
  2700 ;;		line 5 in file "C:\Program Files\Microchip\xc8\v3.10\pic\sources\c99\common\awmod.c"
  2701 ;; Parameters:    Size  Location     Type
  2702 ;;  divisor         2    3[COMMON] int 
  2703 ;;  dividend        2    5[COMMON] int 
  2704 ;; Auto vars:     Size  Location     Type
  2705 ;;  sign            1    8[COMMON] unsigned char 
  2706 ;;  counter         1    7[COMMON] unsigned char 
  2707 ;; Return value:  Size  Location     Type
  2708 ;;                  2    3[COMMON] int 
  2709 ;; Registers used:
  2710 ;;		wreg, status,2, status,0
  2711 ;; Tracked objects:
  2712 ;;		On entry : 0/0
  2713 ;;		On exit  : 0/0
  2714 ;;		Unchanged: 0/0
  2715 ;; Data sizes:     COMMON   BANK0   BANK1   BANK3   BANK2
  2716 ;;      Params:         4       0       0       0       0
  2717 ;;      Locals:         2       0       0       0       0
  2718 ;;      Temps:          0       0       0       0       0
  2719 ;;      Totals:         6       0       0       0       0
  2720 ;;Total ram usage:        6 bytes
  2721 ;; Hardware stack levels used: 1
  2722 ;; Hardware stack levels required when called: 1
  2723 ;; This function calls:
  2724 ;;		Nothing
  2725 ;; This function is called by:
  2726 ;;		_vfpfcnvrt
  2727 ;; This function uses a non-reentrant model
  2728 ;;
  2729                           
  2730     0FA9                     ___awmod:	
  2731                           ;psect for function ___awmod
  2732                           
  2733     0FA9                     l1445:	
  2734                           ;incstack = 0
  2735                           ; Regs used in ___awmod: [wreg+status,2+status,0]
  2736                           
  2737     0FA9  01F8               	clrf	___awmod@sign
  2738     0FAA                     l1447:
  2739     0FAA  1FF6               	btfss	___awmod@dividend+1,7
  2740     0FAB  2FAD               	goto	u1051
  2741     0FAC  2FAE               	goto	u1050
  2742     0FAD                     u1051:
  2743     0FAD  2FB5               	goto	l1453
  2744     0FAE                     u1050:
  2745     0FAE                     l1449:
  2746     0FAE  09F5               	comf	___awmod@dividend,f
  2747     0FAF  09F6               	comf	___awmod@dividend+1,f
  2748     0FB0  0AF5               	incf	___awmod@dividend,f
  2749     0FB1  1903               	skipnz
  2750     0FB2  0AF6               	incf	___awmod@dividend+1,f
  2751     0FB3                     l1451:
  2752     0FB3  3001               	movlw	1
  2753     0FB4  00F8               	movwf	___awmod@sign
  2754     0FB5                     l1453:
  2755     0FB5  1FF4               	btfss	___awmod@divisor+1,7
  2756     0FB6  2FB8               	goto	u1061
  2757     0FB7  2FB9               	goto	u1060
  2758     0FB8                     u1061:
  2759     0FB8  2FBE               	goto	l1457
  2760     0FB9                     u1060:
  2761     0FB9                     l1455:
  2762     0FB9  09F3               	comf	___awmod@divisor,f
  2763     0FBA  09F4               	comf	___awmod@divisor+1,f
  2764     0FBB  0AF3               	incf	___awmod@divisor,f
  2765     0FBC  1903               	skipnz
  2766     0FBD  0AF4               	incf	___awmod@divisor+1,f
  2767     0FBE                     l1457:
  2768     0FBE  0873               	movf	___awmod@divisor,w
  2769     0FBF  0474               	iorwf	___awmod@divisor+1,w
  2770     0FC0  1903               	btfsc	3,2
  2771     0FC1  2FC3               	goto	u1071
  2772     0FC2  2FC4               	goto	u1070
  2773     0FC3                     u1071:
  2774     0FC3  2FF1               	goto	l1475
  2775     0FC4                     u1070:
  2776     0FC4                     l1459:
  2777     0FC4  3001               	movlw	1
  2778     0FC5  00F7               	movwf	___awmod@counter
  2779     0FC6  2FD0               	goto	l1465
  2780     0FC7                     l1461:
  2781     0FC7  3001               	movlw	1
  2782     0FC8                     u1085:
  2783     0FC8  1003               	clrc
  2784     0FC9  0DF3               	rlf	___awmod@divisor,f
  2785     0FCA  0DF4               	rlf	___awmod@divisor+1,f
  2786     0FCB  3EFF               	addlw	-1
  2787     0FCC  1D03               	skipz
  2788     0FCD  2FC8               	goto	u1085
  2789     0FCE                     l1463:
  2790     0FCE  3001               	movlw	1
  2791     0FCF  07F7               	addwf	___awmod@counter,f
  2792     0FD0                     l1465:
  2793     0FD0  1FF4               	btfss	___awmod@divisor+1,7
  2794     0FD1  2FD3               	goto	u1091
  2795     0FD2  2FD4               	goto	u1090
  2796     0FD3                     u1091:
  2797     0FD3  2FC7               	goto	l1461
  2798     0FD4                     u1090:
  2799     0FD4                     l1467:
  2800     0FD4  0874               	movf	___awmod@divisor+1,w
  2801     0FD5  0276               	subwf	___awmod@dividend+1,w
  2802     0FD6  1D03               	skipz
  2803     0FD7  2FDA               	goto	u1105
  2804     0FD8  0873               	movf	___awmod@divisor,w
  2805     0FD9  0275               	subwf	___awmod@dividend,w
  2806     0FDA                     u1105:
  2807     0FDA  1C03               	skipc
  2808     0FDB  2FDD               	goto	u1101
  2809     0FDC  2FDE               	goto	u1100
  2810     0FDD                     u1101:
  2811     0FDD  2FE4               	goto	l1471
  2812     0FDE                     u1100:
  2813     0FDE                     l1469:
  2814     0FDE  0873               	movf	___awmod@divisor,w
  2815     0FDF  02F5               	subwf	___awmod@dividend,f
  2816     0FE0  0874               	movf	___awmod@divisor+1,w
  2817     0FE1  1C03               	skipc
  2818     0FE2  03F6               	decf	___awmod@dividend+1,f
  2819     0FE3  02F6               	subwf	___awmod@dividend+1,f
  2820     0FE4                     l1471:
  2821     0FE4  3001               	movlw	1
  2822     0FE5                     u1115:
  2823     0FE5  1003               	clrc
  2824     0FE6  0CF4               	rrf	___awmod@divisor+1,f
  2825     0FE7  0CF3               	rrf	___awmod@divisor,f
  2826     0FE8  3EFF               	addlw	-1
  2827     0FE9  1D03               	skipz
  2828     0FEA  2FE5               	goto	u1115
  2829     0FEB                     l1473:
  2830     0FEB  3001               	movlw	1
  2831     0FEC  02F7               	subwf	___awmod@counter,f
  2832     0FED  1D03               	btfss	3,2
  2833     0FEE  2FF0               	goto	u1121
  2834     0FEF  2FF1               	goto	u1120
  2835     0FF0                     u1121:
  2836     0FF0  2FD4               	goto	l1467
  2837     0FF1                     u1120:
  2838     0FF1                     l1475:
  2839     0FF1  0878               	movf	___awmod@sign,w
  2840     0FF2  1903               	btfsc	3,2
  2841     0FF3  2FF5               	goto	u1131
  2842     0FF4  2FF6               	goto	u1130
  2843     0FF5                     u1131:
  2844     0FF5  2FFB               	goto	l1479
  2845     0FF6                     u1130:
  2846     0FF6                     l1477:
  2847     0FF6  09F5               	comf	___awmod@dividend,f
  2848     0FF7  09F6               	comf	___awmod@dividend+1,f
  2849     0FF8  0AF5               	incf	___awmod@dividend,f
  2850     0FF9  1903               	skipnz
  2851     0FFA  0AF6               	incf	___awmod@dividend+1,f
  2852     0FFB                     l1479:
  2853     0FFB  0876               	movf	___awmod@dividend+1,w
  2854     0FFC  00F4               	movwf	?___awmod+1
  2855     0FFD  0875               	movf	___awmod@dividend,w
  2856     0FFE  00F3               	movwf	?___awmod
  2857     0FFF                     l446:
  2858     0FFF  0008               	return
  2859     1000                     __end_of___awmod:
  2860                           
  2861                           	psect	text8
  2862     06F0                     __ptext8:	
  2863 ;; *************** function ___awdiv *****************
  2864 ;; Defined at:
  2865 ;;		line 5 in file "C:\Program Files\Microchip\xc8\v3.10\pic\sources\c99\common\awdiv.c"
  2866 ;; Parameters:    Size  Location     Type
  2867 ;;  divisor         2    3[COMMON] int 
  2868 ;;  dividend        2    5[COMMON] int 
  2869 ;; Auto vars:     Size  Location     Type
  2870 ;;  quotient        2    2[BANK0 ] int 
  2871 ;;  sign            1    1[BANK0 ] unsigned char 
  2872 ;;  counter         1    0[BANK0 ] unsigned char 
  2873 ;; Return value:  Size  Location     Type
  2874 ;;                  2    3[COMMON] int 
  2875 ;; Registers used:
  2876 ;;		wreg, status,2, status,0
  2877 ;; Tracked objects:
  2878 ;;		On entry : 0/0
  2879 ;;		On exit  : 0/0
  2880 ;;		Unchanged: 0/0
  2881 ;; Data sizes:     COMMON   BANK0   BANK1   BANK3   BANK2
  2882 ;;      Params:         4       0       0       0       0
  2883 ;;      Locals:         0       4       0       0       0
  2884 ;;      Temps:          0       0       0       0       0
  2885 ;;      Totals:         4       4       0       0       0
  2886 ;;Total ram usage:        8 bytes
  2887 ;; Hardware stack levels used: 1
  2888 ;; Hardware stack levels required when called: 1
  2889 ;; This function calls:
  2890 ;;		Nothing
  2891 ;; This function is called by:
  2892 ;;		_vfpfcnvrt
  2893 ;; This function uses a non-reentrant model
  2894 ;;
  2895                           
  2896     06F0                     ___awdiv:	
  2897                           ;psect for function ___awdiv
  2898                           
  2899     06F0                     l1983:	
  2900                           ;incstack = 0
  2901                           ; Regs used in ___awdiv: [wreg+status,2+status,0]
  2902                           
  2903     06F0  1283               	bcf	3,5	;RP0=0, select bank0
  2904     06F1  1303               	bcf	3,6	;RP1=0, select bank0
  2905     06F2  01A1               	clrf	___awdiv@sign
  2906     06F3                     l1985:
  2907     06F3  1FF4               	btfss	___awdiv@divisor+1,7
  2908     06F4  2EF6               	goto	u1891
  2909     06F5  2EF7               	goto	u1890
  2910     06F6                     u1891:
  2911     06F6  2EFE               	goto	l1991
  2912     06F7                     u1890:
  2913     06F7                     l1987:
  2914     06F7  09F3               	comf	___awdiv@divisor,f
  2915     06F8  09F4               	comf	___awdiv@divisor+1,f
  2916     06F9  0AF3               	incf	___awdiv@divisor,f
  2917     06FA  1903               	skipnz
  2918     06FB  0AF4               	incf	___awdiv@divisor+1,f
  2919     06FC                     l1989:
  2920     06FC  3001               	movlw	1
  2921     06FD  00A1               	movwf	___awdiv@sign
  2922     06FE                     l1991:
  2923     06FE  1FF6               	btfss	___awdiv@dividend+1,7
  2924     06FF  2F01               	goto	u1901
  2925     0700  2F02               	goto	u1900
  2926     0701                     u1901:
  2927     0701  2F09               	goto	l1997
  2928     0702                     u1900:
  2929     0702                     l1993:
  2930     0702  09F5               	comf	___awdiv@dividend,f
  2931     0703  09F6               	comf	___awdiv@dividend+1,f
  2932     0704  0AF5               	incf	___awdiv@dividend,f
  2933     0705  1903               	skipnz
  2934     0706  0AF6               	incf	___awdiv@dividend+1,f
  2935     0707                     l1995:
  2936     0707  3001               	movlw	1
  2937     0708  06A1               	xorwf	___awdiv@sign,f
  2938     0709                     l1997:
  2939     0709  01A2               	clrf	___awdiv@quotient
  2940     070A  01A3               	clrf	___awdiv@quotient+1
  2941     070B                     l1999:
  2942     070B  0873               	movf	___awdiv@divisor,w
  2943     070C  0474               	iorwf	___awdiv@divisor+1,w
  2944     070D  1903               	btfsc	3,2
  2945     070E  2F10               	goto	u1911
  2946     070F  2F11               	goto	u1910
  2947     0710                     u1911:
  2948     0710  2F46               	goto	l2019
  2949     0711                     u1910:
  2950     0711                     l2001:
  2951     0711  3001               	movlw	1
  2952     0712  00A0               	movwf	___awdiv@counter
  2953     0713  2F1D               	goto	l2007
  2954     0714                     l2003:
  2955     0714  3001               	movlw	1
  2956     0715                     u1925:
  2957     0715  1003               	clrc
  2958     0716  0DF3               	rlf	___awdiv@divisor,f
  2959     0717  0DF4               	rlf	___awdiv@divisor+1,f
  2960     0718  3EFF               	addlw	-1
  2961     0719  1D03               	skipz
  2962     071A  2F15               	goto	u1925
  2963     071B                     l2005:
  2964     071B  3001               	movlw	1
  2965     071C  07A0               	addwf	___awdiv@counter,f
  2966     071D                     l2007:
  2967     071D  1FF4               	btfss	___awdiv@divisor+1,7
  2968     071E  2F20               	goto	u1931
  2969     071F  2F21               	goto	u1930
  2970     0720                     u1931:
  2971     0720  2F14               	goto	l2003
  2972     0721                     u1930:
  2973     0721                     l2009:
  2974     0721  3001               	movlw	1
  2975     0722                     u1945:
  2976     0722  1003               	clrc
  2977     0723  0DA2               	rlf	___awdiv@quotient,f
  2978     0724  0DA3               	rlf	___awdiv@quotient+1,f
  2979     0725  3EFF               	addlw	-1
  2980     0726  1D03               	skipz
  2981     0727  2F22               	goto	u1945
  2982     0728  0874               	movf	___awdiv@divisor+1,w
  2983     0729  0276               	subwf	___awdiv@dividend+1,w
  2984     072A  1D03               	skipz
  2985     072B  2F2E               	goto	u1955
  2986     072C  0873               	movf	___awdiv@divisor,w
  2987     072D  0275               	subwf	___awdiv@dividend,w
  2988     072E                     u1955:
  2989     072E  1C03               	skipc
  2990     072F  2F31               	goto	u1951
  2991     0730  2F32               	goto	u1950
  2992     0731                     u1951:
  2993     0731  2F39               	goto	l2015
  2994     0732                     u1950:
  2995     0732                     l2011:
  2996     0732  0873               	movf	___awdiv@divisor,w
  2997     0733  02F5               	subwf	___awdiv@dividend,f
  2998     0734  0874               	movf	___awdiv@divisor+1,w
  2999     0735  1C03               	skipc
  3000     0736  03F6               	decf	___awdiv@dividend+1,f
  3001     0737  02F6               	subwf	___awdiv@dividend+1,f
  3002     0738                     l2013:
  3003     0738  1422               	bsf	___awdiv@quotient,0
  3004     0739                     l2015:
  3005     0739  3001               	movlw	1
  3006     073A                     u1965:
  3007     073A  1003               	clrc
  3008     073B  0CF4               	rrf	___awdiv@divisor+1,f
  3009     073C  0CF3               	rrf	___awdiv@divisor,f
  3010     073D  3EFF               	addlw	-1
  3011     073E  1D03               	skipz
  3012     073F  2F3A               	goto	u1965
  3013     0740                     l2017:
  3014     0740  3001               	movlw	1
  3015     0741  02A0               	subwf	___awdiv@counter,f
  3016     0742  1D03               	btfss	3,2
  3017     0743  2F45               	goto	u1971
  3018     0744  2F46               	goto	u1970
  3019     0745                     u1971:
  3020     0745  2F21               	goto	l2009
  3021     0746                     u1970:
  3022     0746                     l2019:
  3023     0746  0821               	movf	___awdiv@sign,w
  3024     0747  1903               	btfsc	3,2
  3025     0748  2F4A               	goto	u1981
  3026     0749  2F4B               	goto	u1980
  3027     074A                     u1981:
  3028     074A  2F50               	goto	l2023
  3029     074B                     u1980:
  3030     074B                     l2021:
  3031     074B  09A2               	comf	___awdiv@quotient,f
  3032     074C  09A3               	comf	___awdiv@quotient+1,f
  3033     074D  0AA2               	incf	___awdiv@quotient,f
  3034     074E  1903               	skipnz
  3035     074F  0AA3               	incf	___awdiv@quotient+1,f
  3036     0750                     l2023:
  3037     0750  0823               	movf	___awdiv@quotient+1,w
  3038     0751  00F4               	movwf	?___awdiv+1
  3039     0752  0822               	movf	___awdiv@quotient,w
  3040     0753  00F3               	movwf	?___awdiv
  3041     0754                     l433:
  3042     0754  0008               	return
  3043     0755                     __end_of___awdiv:
  3044                           
  3045                           	psect	text9
  3046     07B3                     __ptext9:	
  3047 ;; *************** function ___lmul *****************
  3048 ;; Defined at:
  3049 ;;		line 15 in file "C:\Program Files\Microchip\xc8\v3.10\pic\sources\c99\common\Umul32.c"
  3050 ;; Parameters:    Size  Location     Type
  3051 ;;  multiplier      4    0[BANK0 ] unsigned long 
  3052 ;;  multiplicand    4    4[BANK0 ] unsigned long 
  3053 ;; Auto vars:     Size  Location     Type
  3054 ;;  product         4    4[COMMON] unsigned long 
  3055 ;; Return value:  Size  Location     Type
  3056 ;;                  4    0[BANK0 ] unsigned long 
  3057 ;; Registers used:
  3058 ;;		wreg, status,2, status,0
  3059 ;; Tracked objects:
  3060 ;;		On entry : 0/0
  3061 ;;		On exit  : 0/0
  3062 ;;		Unchanged: 0/0
  3063 ;; Data sizes:     COMMON   BANK0   BANK1   BANK3   BANK2
  3064 ;;      Params:         0       8       0       0       0
  3065 ;;      Locals:         4       0       0       0       0
  3066 ;;      Temps:          1       0       0       0       0
  3067 ;;      Totals:         5       8       0       0       0
  3068 ;;Total ram usage:       13 bytes
  3069 ;; Hardware stack levels used: 1
  3070 ;; Hardware stack levels required when called: 1
  3071 ;; This function calls:
  3072 ;;		Nothing
  3073 ;; This function is called by:
  3074 ;;		_main
  3075 ;; This function uses a non-reentrant model
  3076 ;;
  3077                           
  3078     07B3                     ___lmul:	
  3079                           ;psect for function ___lmul
  3080                           
  3081     07B3                     l2159:	
  3082                           ;incstack = 0
  3083                           ; Regs used in ___lmul: [wreg+status,2+status,0]
  3084                           
  3085     07B3  3000               	movlw	0
  3086     07B4  00F7               	movwf	___lmul@product+3
  3087     07B5  3000               	movlw	0
  3088     07B6  00F6               	movwf	___lmul@product+2
  3089     07B7  3000               	movlw	0
  3090     07B8  00F5               	movwf	___lmul@product+1
  3091     07B9  3000               	movlw	0
  3092     07BA  00F4               	movwf	___lmul@product
  3093     07BB                     l2161:
  3094     07BB  1283               	bcf	3,5	;RP0=0, select bank0
  3095     07BC  1303               	bcf	3,6	;RP1=0, select bank0
  3096     07BD  1C20               	btfss	___lmul@multiplier,0
  3097     07BE  2FC0               	goto	u2221
  3098     07BF  2FC1               	goto	u2220
  3099     07C0                     u2221:
  3100     07C0  2FD8               	goto	l2165
  3101     07C1                     u2220:
  3102     07C1                     l2163:
  3103     07C1  0824               	movf	___lmul@multiplicand,w
  3104     07C2  07F4               	addwf	___lmul@product,f
  3105     07C3  0825               	movf	___lmul@multiplicand+1,w
  3106     07C4  1103               	clrz
  3107     07C5  1803               	skipnc
  3108     07C6  3E01               	addlw	1
  3109     07C7  1903               	skipnz
  3110     07C8  2FCA               	goto	u2231
  3111     07C9  07F5               	addwf	___lmul@product+1,f
  3112     07CA                     u2231:
  3113     07CA  0826               	movf	___lmul@multiplicand+2,w
  3114     07CB  1103               	clrz
  3115     07CC  1803               	skipnc
  3116     07CD  3E01               	addlw	1
  3117     07CE  1903               	skipnz
  3118     07CF  2FD1               	goto	u2232
  3119     07D0  07F6               	addwf	___lmul@product+2,f
  3120     07D1                     u2232:
  3121     07D1  0827               	movf	___lmul@multiplicand+3,w
  3122     07D2  1103               	clrz
  3123     07D3  1803               	skipnc
  3124     07D4  3E01               	addlw	1
  3125     07D5  1903               	skipnz
  3126     07D6  2FD8               	goto	u2233
  3127     07D7  07F7               	addwf	___lmul@product+3,f
  3128     07D8                     u2233:
  3129     07D8                     l2165:
  3130     07D8  3001               	movlw	1
  3131     07D9  00F3               	movwf	??___lmul
  3132     07DA                     u2245:
  3133     07DA  1003               	clrc
  3134     07DB  0DA4               	rlf	___lmul@multiplicand,f
  3135     07DC  0DA5               	rlf	___lmul@multiplicand+1,f
  3136     07DD  0DA6               	rlf	___lmul@multiplicand+2,f
  3137     07DE  0DA7               	rlf	___lmul@multiplicand+3,f
  3138     07DF  0BF3               	decfsz	??___lmul,f
  3139     07E0  2FDA               	goto	u2245
  3140     07E1                     l2167:
  3141     07E1  3001               	movlw	1
  3142     07E2                     u2255:
  3143     07E2  1003               	clrc
  3144     07E3  0CA3               	rrf	___lmul@multiplier+3,f
  3145     07E4  0CA2               	rrf	___lmul@multiplier+2,f
  3146     07E5  0CA1               	rrf	___lmul@multiplier+1,f
  3147     07E6  0CA0               	rrf	___lmul@multiplier,f
  3148     07E7  3EFF               	addlw	-1
  3149     07E8  1D03               	skipz
  3150     07E9  2FE2               	goto	u2255
  3151     07EA  0823               	movf	___lmul@multiplier+3,w
  3152     07EB  0422               	iorwf	___lmul@multiplier+2,w
  3153     07EC  0421               	iorwf	___lmul@multiplier+1,w
  3154     07ED  0420               	iorwf	___lmul@multiplier,w
  3155     07EE  1D03               	skipz
  3156     07EF  2FF1               	goto	u2261
  3157     07F0  2FF2               	goto	u2260
  3158     07F1                     u2261:
  3159     07F1  2FBB               	goto	l2161
  3160     07F2                     u2260:
  3161     07F2                     l2169:
  3162     07F2  0877               	movf	___lmul@product+3,w
  3163     07F3  00A3               	movwf	?___lmul+3
  3164     07F4  0876               	movf	___lmul@product+2,w
  3165     07F5  00A2               	movwf	?___lmul+2
  3166     07F6  0875               	movf	___lmul@product+1,w
  3167     07F7  00A1               	movwf	?___lmul+1
  3168     07F8  0874               	movf	___lmul@product,w
  3169     07F9  00A0               	movwf	?___lmul
  3170     07FA                     l294:
  3171     07FA  0008               	return
  3172     07FB                     __end_of___lmul:
  3173                           
  3174                           	psect	text10
  3175     068A                     __ptext10:	
  3176 ;; *************** function ___lldiv *****************
  3177 ;; Defined at:
  3178 ;;		line 5 in file "C:\Program Files\Microchip\xc8\v3.10\pic\sources\c99\common\__lldiv.c"
  3179 ;; Parameters:    Size  Location     Type
  3180 ;;  divisor         4    8[BANK0 ] unsigned long 
  3181 ;;  dividend        4   12[BANK0 ] unsigned long 
  3182 ;; Auto vars:     Size  Location     Type
  3183 ;;  quotient        4   16[BANK0 ] unsigned long 
  3184 ;;  counter         1   20[BANK0 ] unsigned char 
  3185 ;; Return value:  Size  Location     Type
  3186 ;;                  4    8[BANK0 ] unsigned long 
  3187 ;; Registers used:
  3188 ;;		wreg, status,2, status,0
  3189 ;; Tracked objects:
  3190 ;;		On entry : 0/0
  3191 ;;		On exit  : 0/0
  3192 ;;		Unchanged: 0/0
  3193 ;; Data sizes:     COMMON   BANK0   BANK1   BANK3   BANK2
  3194 ;;      Params:         0       8       0       0       0
  3195 ;;      Locals:         0       5       0       0       0
  3196 ;;      Temps:          1       0       0       0       0
  3197 ;;      Totals:         1      13       0       0       0
  3198 ;;Total ram usage:       14 bytes
  3199 ;; Hardware stack levels used: 1
  3200 ;; Hardware stack levels required when called: 1
  3201 ;; This function calls:
  3202 ;;		Nothing
  3203 ;; This function is called by:
  3204 ;;		_main
  3205 ;; This function uses a non-reentrant model
  3206 ;;
  3207                           
  3208     068A                     ___lldiv:	
  3209                           ;psect for function ___lldiv
  3210                           
  3211     068A                     l2173:	
  3212                           ;incstack = 0
  3213                           ; Regs used in ___lldiv: [wreg+status,2+status,0]
  3214                           
  3215     068A  3000               	movlw	0
  3216     068B  1283               	bcf	3,5	;RP0=0, select bank0
  3217     068C  1303               	bcf	3,6	;RP1=0, select bank0
  3218     068D  00B3               	movwf	___lldiv@quotient+3
  3219     068E  3000               	movlw	0
  3220     068F  00B2               	movwf	___lldiv@quotient+2
  3221     0690  3000               	movlw	0
  3222     0691  00B1               	movwf	___lldiv@quotient+1
  3223     0692  3000               	movlw	0
  3224     0693  00B0               	movwf	___lldiv@quotient
  3225     0694  082B               	movf	___lldiv@divisor+3,w
  3226     0695  042A               	iorwf	___lldiv@divisor+2,w
  3227     0696  0429               	iorwf	___lldiv@divisor+1,w
  3228     0697  0428               	iorwf	___lldiv@divisor,w
  3229     0698  1903               	skipnz
  3230     0699  2E9B               	goto	u2271
  3231     069A  2E9C               	goto	u2270
  3232     069B                     u2271:
  3233     069B  2EE7               	goto	l2193
  3234     069C                     u2270:
  3235     069C                     l2175:
  3236     069C  3001               	movlw	1
  3237     069D  00B4               	movwf	___lldiv@counter
  3238     069E  2EAA               	goto	l2179
  3239     069F                     l2177:
  3240     069F  3001               	movlw	1
  3241     06A0  00F8               	movwf	??___lldiv
  3242     06A1                     u2285:
  3243     06A1  1003               	clrc
  3244     06A2  0DA8               	rlf	___lldiv@divisor,f
  3245     06A3  0DA9               	rlf	___lldiv@divisor+1,f
  3246     06A4  0DAA               	rlf	___lldiv@divisor+2,f
  3247     06A5  0DAB               	rlf	___lldiv@divisor+3,f
  3248     06A6  0BF8               	decfsz	??___lldiv,f
  3249     06A7  2EA1               	goto	u2285
  3250     06A8  3001               	movlw	1
  3251     06A9  07B4               	addwf	___lldiv@counter,f
  3252     06AA                     l2179:
  3253     06AA  1FAB               	btfss	___lldiv@divisor+3,7
  3254     06AB  2EAD               	goto	u2291
  3255     06AC  2EAE               	goto	u2290
  3256     06AD                     u2291:
  3257     06AD  2E9F               	goto	l2177
  3258     06AE                     u2290:
  3259     06AE                     l2181:
  3260     06AE  3001               	movlw	1
  3261     06AF  00F8               	movwf	??___lldiv
  3262     06B0                     u2305:
  3263     06B0  1003               	clrc
  3264     06B1  0DB0               	rlf	___lldiv@quotient,f
  3265     06B2  0DB1               	rlf	___lldiv@quotient+1,f
  3266     06B3  0DB2               	rlf	___lldiv@quotient+2,f
  3267     06B4  0DB3               	rlf	___lldiv@quotient+3,f
  3268     06B5  0BF8               	decfsz	??___lldiv,f
  3269     06B6  2EB0               	goto	u2305
  3270     06B7                     l2183:
  3271     06B7  082B               	movf	___lldiv@divisor+3,w
  3272     06B8  022F               	subwf	___lldiv@dividend+3,w
  3273     06B9  1D03               	skipz
  3274     06BA  2EC5               	goto	u2315
  3275     06BB  082A               	movf	___lldiv@divisor+2,w
  3276     06BC  022E               	subwf	___lldiv@dividend+2,w
  3277     06BD  1D03               	skipz
  3278     06BE  2EC5               	goto	u2315
  3279     06BF  0829               	movf	___lldiv@divisor+1,w
  3280     06C0  022D               	subwf	___lldiv@dividend+1,w
  3281     06C1  1D03               	skipz
  3282     06C2  2EC5               	goto	u2315
  3283     06C3  0828               	movf	___lldiv@divisor,w
  3284     06C4  022C               	subwf	___lldiv@dividend,w
  3285     06C5                     u2315:
  3286     06C5  1C03               	skipc
  3287     06C6  2EC8               	goto	u2311
  3288     06C7  2EC9               	goto	u2310
  3289     06C8                     u2311:
  3290     06C8  2ED8               	goto	l2189
  3291     06C9                     u2310:
  3292     06C9                     l2185:
  3293     06C9  0828               	movf	___lldiv@divisor,w
  3294     06CA  02AC               	subwf	___lldiv@dividend,f
  3295     06CB  0829               	movf	___lldiv@divisor+1,w
  3296     06CC  1C03               	skipc
  3297     06CD  0F29               	incfsz	___lldiv@divisor+1,w
  3298     06CE  02AD               	subwf	___lldiv@dividend+1,f
  3299     06CF  082A               	movf	___lldiv@divisor+2,w
  3300     06D0  1C03               	skipc
  3301     06D1  0F2A               	incfsz	___lldiv@divisor+2,w
  3302     06D2  02AE               	subwf	___lldiv@dividend+2,f
  3303     06D3  082B               	movf	___lldiv@divisor+3,w
  3304     06D4  1C03               	skipc
  3305     06D5  0F2B               	incfsz	___lldiv@divisor+3,w
  3306     06D6  02AF               	subwf	___lldiv@dividend+3,f
  3307     06D7                     l2187:
  3308     06D7  1430               	bsf	___lldiv@quotient,0
  3309     06D8                     l2189:
  3310     06D8  3001               	movlw	1
  3311     06D9                     u2325:
  3312     06D9  1003               	clrc
  3313     06DA  0CAB               	rrf	___lldiv@divisor+3,f
  3314     06DB  0CAA               	rrf	___lldiv@divisor+2,f
  3315     06DC  0CA9               	rrf	___lldiv@divisor+1,f
  3316     06DD  0CA8               	rrf	___lldiv@divisor,f
  3317     06DE  3EFF               	addlw	-1
  3318     06DF  1D03               	skipz
  3319     06E0  2ED9               	goto	u2325
  3320     06E1                     l2191:
  3321     06E1  3001               	movlw	1
  3322     06E2  02B4               	subwf	___lldiv@counter,f
  3323     06E3  1D03               	btfss	3,2
  3324     06E4  2EE6               	goto	u2331
  3325     06E5  2EE7               	goto	u2330
  3326     06E6                     u2331:
  3327     06E6  2EAE               	goto	l2181
  3328     06E7                     u2330:
  3329     06E7                     l2193:
  3330     06E7  0833               	movf	___lldiv@quotient+3,w
  3331     06E8  00AB               	movwf	?___lldiv+3
  3332     06E9  0832               	movf	___lldiv@quotient+2,w
  3333     06EA  00AA               	movwf	?___lldiv+2
  3334     06EB  0831               	movf	___lldiv@quotient+1,w
  3335     06EC  00A9               	movwf	?___lldiv+1
  3336     06ED  0830               	movf	___lldiv@quotient,w
  3337     06EE  00A8               	movwf	?___lldiv
  3338     06EF                     l316:
  3339     06EF  0008               	return
  3340     06F0                     __end_of___lldiv:
  3341                           
  3342                           	psect	text11
  3343     0E66                     __ptext11:	
  3344 ;; *************** function _UART_Write_String *****************
  3345 ;; Defined at:
  3346 ;;		line 46 in file "victim.c"
  3347 ;; Parameters:    Size  Location     Type
  3348 ;;  s               1    4[COMMON] PTR unsigned char 
  3349 ;;		 -> main@pkt(15), 
  3350 ;; Auto vars:     Size  Location     Type
  3351 ;;		None
  3352 ;; Return value:  Size  Location     Type
  3353 ;;                  1    wreg      void 
  3354 ;; Registers used:
  3355 ;;		wreg, fsr0l, fsr0h, status,2, status,0, pclath, cstack
  3356 ;; Tracked objects:
  3357 ;;		On entry : 0/0
  3358 ;;		On exit  : 0/0
  3359 ;;		Unchanged: 0/0
  3360 ;; Data sizes:     COMMON   BANK0   BANK1   BANK3   BANK2
  3361 ;;      Params:         1       0       0       0       0
  3362 ;;      Locals:         0       0       0       0       0
  3363 ;;      Temps:          0       0       0       0       0
  3364 ;;      Totals:         1       0       0       0       0
  3365 ;;Total ram usage:        1 bytes
  3366 ;; Hardware stack levels used: 1
  3367 ;; Hardware stack levels required when called: 2
  3368 ;; This function calls:
  3369 ;;		_UART_Write
  3370 ;; This function is called by:
  3371 ;;		_main
  3372 ;; This function uses a non-reentrant model
  3373 ;;
  3374                           
  3375     0E66                     _UART_Write_String:	
  3376                           ;psect for function _UART_Write_String
  3377                           
  3378     0E66                     l1705:	
  3379                           ;incstack = 0
  3380                           ; Regs used in _UART_Write_String: [wreg-fsr0h+status,2+status,0+pclath+cstack]
  3381                           
  3382     0E66  2E71               	goto	l1711
  3383     0E67                     l1707:
  3384     0E67  0874               	movf	UART_Write_String@s,w
  3385     0E68  0084               	movwf	4
  3386     0E69  0800               	movf	0,w
  3387     0E6A  120A  158A  2623  120A  158A  	fcall	_UART_Write
  3388     0E6F                     l1709:
  3389     0E6F  3001               	movlw	1
  3390     0E70  07F4               	addwf	UART_Write_String@s,f
  3391     0E71                     l1711:
  3392     0E71  0874               	movf	UART_Write_String@s,w
  3393     0E72  0084               	movwf	4
  3394     0E73  1383               	bcf	3,7	;select IRP bank0
  3395     0E74  0800               	movf	0,w
  3396     0E75  1D03               	btfss	3,2
  3397     0E76  2E78               	goto	u1551
  3398     0E77  2E79               	goto	u1550
  3399     0E78                     u1551:
  3400     0E78  2E67               	goto	l1707
  3401     0E79                     u1550:
  3402     0E79                     l127:
  3403     0E79  0008               	return
  3404     0E7A                     __end_of_UART_Write_String:
  3405                           
  3406                           	psect	text12
  3407     0E23                     __ptext12:	
  3408 ;; *************** function _UART_Write *****************
  3409 ;; Defined at:
  3410 ;;		line 45 in file "victim.c"
  3411 ;; Parameters:    Size  Location     Type
  3412 ;;  d               1    wreg     unsigned char 
  3413 ;; Auto vars:     Size  Location     Type
  3414 ;;  d               1    3[COMMON] unsigned char 
  3415 ;; Return value:  Size  Location     Type
  3416 ;;                  1    wreg      void 
  3417 ;; Registers used:
  3418 ;;		wreg
  3419 ;; Tracked objects:
  3420 ;;		On entry : 0/0
  3421 ;;		On exit  : 0/0
  3422 ;;		Unchanged: 0/0
  3423 ;; Data sizes:     COMMON   BANK0   BANK1   BANK3   BANK2
  3424 ;;      Params:         0       0       0       0       0
  3425 ;;      Locals:         1       0       0       0       0
  3426 ;;      Temps:          0       0       0       0       0
  3427 ;;      Totals:         1       0       0       0       0
  3428 ;;Total ram usage:        1 bytes
  3429 ;; Hardware stack levels used: 1
  3430 ;; Hardware stack levels required when called: 1
  3431 ;; This function calls:
  3432 ;;		Nothing
  3433 ;; This function is called by:
  3434 ;;		_UART_Write_String
  3435 ;;		_main
  3436 ;; This function uses a non-reentrant model
  3437 ;;
  3438                           
  3439     0E23                     _UART_Write:	
  3440                           ;psect for function _UART_Write
  3441                           
  3442                           
  3443                           ;incstack = 0
  3444                           ; Regs used in _UART_Write: [wreg]
  3445                           ;UART_Write@d stored from wreg
  3446     0E23  00F3               	movwf	UART_Write@d
  3447     0E24                     l1575:
  3448     0E24  2E26               	goto	l118
  3449     0E25                     l119:
  3450     0E25  0064               	clrwdt	;# 
  3451     0E26                     l118:
  3452     0E26  1683               	bsf	3,5	;RP0=1, select bank1
  3453     0E27  1303               	bcf	3,6	;RP1=0, select bank1
  3454     0E28  1C98               	btfss	24,1	;volatile
  3455     0E29  2E2B               	goto	u1341
  3456     0E2A  2E2C               	goto	u1340
  3457     0E2B                     u1341:
  3458     0E2B  2E25               	goto	l119
  3459     0E2C                     u1340:
  3460     0E2C                     l1577:
  3461     0E2C  0873               	movf	UART_Write@d,w
  3462     0E2D  1283               	bcf	3,5	;RP0=0, select bank0
  3463     0E2E  1303               	bcf	3,6	;RP1=0, select bank0
  3464     0E2F  0099               	movwf	25	;volatile
  3465     0E30                     l121:
  3466     0E30  0008               	return
  3467     0E31                     __end_of_UART_Write:
  3468                           
  3469                           	psect	text13
  3470     0E31                     __ptext13:	
  3471 ;; *************** function _UART_Read *****************
  3472 ;; Defined at:
  3473 ;;		line 47 in file "victim.c"
  3474 ;; Parameters:    Size  Location     Type
  3475 ;;		None
  3476 ;; Auto vars:     Size  Location     Type
  3477 ;;		None
  3478 ;; Return value:  Size  Location     Type
  3479 ;;                  1    wreg      unsigned char 
  3480 ;; Registers used:
  3481 ;;		wreg
  3482 ;; Tracked objects:
  3483 ;;		On entry : 0/0
  3484 ;;		On exit  : 0/0
  3485 ;;		Unchanged: 0/0
  3486 ;; Data sizes:     COMMON   BANK0   BANK1   BANK3   BANK2
  3487 ;;      Params:         0       0       0       0       0
  3488 ;;      Locals:         0       0       0       0       0
  3489 ;;      Temps:          0       0       0       0       0
  3490 ;;      Totals:         0       0       0       0       0
  3491 ;;Total ram usage:        0 bytes
  3492 ;; Hardware stack levels used: 1
  3493 ;; Hardware stack levels required when called: 1
  3494 ;; This function calls:
  3495 ;;		Nothing
  3496 ;; This function is called by:
  3497 ;;		_main
  3498 ;; This function uses a non-reentrant model
  3499 ;;
  3500                           
  3501     0E31                     _UART_Read:	
  3502                           ;psect for function _UART_Read
  3503                           
  3504     0E31                     l1713:	
  3505                           ;incstack = 0
  3506                           ; Regs used in _UART_Read: [wreg]
  3507                           
  3508     0E31  2E33               	goto	l130
  3509     0E32                     l131:
  3510     0E32  0064               	clrwdt	;# 
  3511     0E33                     l130:
  3512     0E33  1283               	bcf	3,5	;RP0=0, select bank0
  3513     0E34  1303               	bcf	3,6	;RP1=0, select bank0
  3514     0E35  1E8C               	btfss	12,5	;volatile
  3515     0E36  2E38               	goto	u1561
  3516     0E37  2E39               	goto	u1560
  3517     0E38                     u1561:
  3518     0E38  2E32               	goto	l131
  3519     0E39                     u1560:
  3520     0E39                     l132:
  3521     0E39  1C98               	btfss	24,1	;volatile
  3522     0E3A  2E3C               	goto	u1571
  3523     0E3B  2E3D               	goto	u1570
  3524     0E3C                     u1571:
  3525     0E3C  2E3F               	goto	l1717
  3526     0E3D                     u1570:
  3527     0E3D                     l1715:
  3528     0E3D  1218               	bcf	24,4	;volatile
  3529     0E3E  1618               	bsf	24,4	;volatile
  3530     0E3F                     l1717:
  3531     0E3F  081A               	movf	26,w	;volatile
  3532     0E40                     l134:
  3533     0E40  0008               	return
  3534     0E41                     __end_of_UART_Read:
  3535                           
  3536                           	psect	text14
  3537     0F2B                     __ptext14:	
  3538 ;; *************** function _UART_Init *****************
  3539 ;; Defined at:
  3540 ;;		line 44 in file "victim.c"
  3541 ;; Parameters:    Size  Location     Type
  3542 ;;  baud            4   14[BANK0 ] long 
  3543 ;; Auto vars:     Size  Location     Type
  3544 ;;		None
  3545 ;; Return value:  Size  Location     Type
  3546 ;;                  1    wreg      void 
  3547 ;; Registers used:
  3548 ;;		wreg, status,2, status,0, pclath, cstack
  3549 ;; Tracked objects:
  3550 ;;		On entry : 0/0
  3551 ;;		On exit  : 0/0
  3552 ;;		Unchanged: 0/0
  3553 ;; Data sizes:     COMMON   BANK0   BANK1   BANK3   BANK2
  3554 ;;      Params:         0       4       0       0       0
  3555 ;;      Locals:         0       0       0       0       0
  3556 ;;      Temps:          4       0       0       0       0
  3557 ;;      Totals:         4       4       0       0       0
  3558 ;;Total ram usage:        8 bytes
  3559 ;; Hardware stack levels used: 1
  3560 ;; Hardware stack levels required when called: 2
  3561 ;; This function calls:
  3562 ;;		___aldiv
  3563 ;; This function is called by:
  3564 ;;		_main
  3565 ;; This function uses a non-reentrant model
  3566 ;;
  3567                           
  3568     0F2B                     _UART_Init:	
  3569                           ;psect for function _UART_Init
  3570                           
  3571     0F2B                     l2135:	
  3572                           ;incstack = 0
  3573                           ; Regs used in _UART_Init: [wreg+status,2+status,0+pclath+cstack]
  3574                           
  3575     0F2B  1283               	bcf	3,5	;RP0=0, select bank0
  3576     0F2C  1303               	bcf	3,6	;RP1=0, select bank0
  3577     0F2D  082E               	movf	UART_Init@baud,w
  3578     0F2E  00F4               	movwf	??_UART_Init
  3579     0F2F  082F               	movf	UART_Init@baud+1,w
  3580     0F30  00F5               	movwf	??_UART_Init+1
  3581     0F31  0830               	movf	UART_Init@baud+2,w
  3582     0F32  00F6               	movwf	??_UART_Init+2
  3583     0F33  0831               	movf	UART_Init@baud+3,w
  3584     0F34  00F7               	movwf	??_UART_Init+3
  3585     0F35  3004               	movlw	4
  3586     0F36                     u2215:
  3587     0F36  1003               	clrc
  3588     0F37  0DF4               	rlf	??_UART_Init,f
  3589     0F38  0DF5               	rlf	??_UART_Init+1,f
  3590     0F39  0DF6               	rlf	??_UART_Init+2,f
  3591     0F3A  0DF7               	rlf	??_UART_Init+3,f
  3592     0F3B                     u2210:
  3593     0F3B  3EFF               	addlw	-1
  3594     0F3C  1D03               	skipz
  3595     0F3D  2F36               	goto	u2215
  3596     0F3E  0877               	movf	??_UART_Init+3,w
  3597     0F3F  00A3               	movwf	___aldiv@divisor+3
  3598     0F40  0876               	movf	??_UART_Init+2,w
  3599     0F41  00A2               	movwf	___aldiv@divisor+2
  3600     0F42  0875               	movf	??_UART_Init+1,w
  3601     0F43  00A1               	movwf	___aldiv@divisor+1
  3602     0F44  0874               	movf	??_UART_Init,w
  3603     0F45  00A0               	movwf	___aldiv@divisor
  3604     0F46  3001               	movlw	1
  3605     0F47  00A7               	movwf	___aldiv@dividend+3
  3606     0F48  3031               	movlw	49
  3607     0F49  00A6               	movwf	___aldiv@dividend+2
  3608     0F4A  302D               	movlw	45
  3609     0F4B  00A5               	movwf	___aldiv@dividend+1
  3610     0F4C  3000               	movlw	0
  3611     0F4D  00A4               	movwf	___aldiv@dividend
  3612     0F4E  120A  118A  256A  120A  158A  	fcall	___aldiv
  3613     0F53  1283               	bcf	3,5	;RP0=0, select bank0
  3614     0F54  1303               	bcf	3,6	;RP1=0, select bank0
  3615     0F55  0820               	movf	?___aldiv,w
  3616     0F56  3EFF               	addlw	255
  3617     0F57  1683               	bsf	3,5	;RP0=1, select bank1
  3618     0F58  1303               	bcf	3,6	;RP1=0, select bank1
  3619     0F59  0099               	movwf	25	;volatile
  3620     0F5A                     l2137:
  3621     0F5A  1518               	bsf	24,2	;volatile
  3622     0F5B                     l2139:
  3623     0F5B  1698               	bsf	24,5	;volatile
  3624     0F5C                     l2141:
  3625     0F5C  1283               	bcf	3,5	;RP0=0, select bank0
  3626     0F5D  1303               	bcf	3,6	;RP1=0, select bank0
  3627     0F5E  1618               	bsf	24,4	;volatile
  3628     0F5F                     l2143:
  3629     0F5F  1798               	bsf	24,7	;volatile
  3630     0F60                     l115:
  3631     0F60  0008               	return
  3632     0F61                     __end_of_UART_Init:
  3633                           
  3634                           	psect	text15
  3635     056A                     __ptext15:	
  3636 ;; *************** function ___aldiv *****************
  3637 ;; Defined at:
  3638 ;;		line 5 in file "C:\Program Files\Microchip\xc8\v3.10\pic\sources\c99\common\aldiv.c"
  3639 ;; Parameters:    Size  Location     Type
  3640 ;;  divisor         4    0[BANK0 ] long 
  3641 ;;  dividend        4    4[BANK0 ] long 
  3642 ;; Auto vars:     Size  Location     Type
  3643 ;;  quotient        4   10[BANK0 ] long 
  3644 ;;  sign            1    9[BANK0 ] unsigned char 
  3645 ;;  counter         1    8[BANK0 ] unsigned char 
  3646 ;; Return value:  Size  Location     Type
  3647 ;;                  4    0[BANK0 ] long 
  3648 ;; Registers used:
  3649 ;;		wreg, status,2, status,0
  3650 ;; Tracked objects:
  3651 ;;		On entry : 0/0
  3652 ;;		On exit  : 0/0
  3653 ;;		Unchanged: 0/0
  3654 ;; Data sizes:     COMMON   BANK0   BANK1   BANK3   BANK2
  3655 ;;      Params:         0       8       0       0       0
  3656 ;;      Locals:         0       6       0       0       0
  3657 ;;      Temps:          1       0       0       0       0
  3658 ;;      Totals:         1      14       0       0       0
  3659 ;;Total ram usage:       15 bytes
  3660 ;; Hardware stack levels used: 1
  3661 ;; Hardware stack levels required when called: 1
  3662 ;; This function calls:
  3663 ;;		Nothing
  3664 ;; This function is called by:
  3665 ;;		_UART_Init
  3666 ;; This function uses a non-reentrant model
  3667 ;;
  3668                           
  3669     056A                     ___aldiv:	
  3670                           ;psect for function ___aldiv
  3671                           
  3672     056A                     l2085:	
  3673                           ;incstack = 0
  3674                           ; Regs used in ___aldiv: [wreg+status,2+status,0]
  3675                           
  3676     056A  1283               	bcf	3,5	;RP0=0, select bank0
  3677     056B  1303               	bcf	3,6	;RP1=0, select bank0
  3678     056C  01A9               	clrf	___aldiv@sign
  3679     056D                     l2087:
  3680     056D  1FA3               	btfss	___aldiv@divisor+3,7
  3681     056E  2D70               	goto	u2101
  3682     056F  2D71               	goto	u2100
  3683     0570                     u2101:
  3684     0570  2D7E               	goto	l345
  3685     0571                     u2100:
  3686     0571                     l2089:
  3687     0571  09A0               	comf	___aldiv@divisor,f
  3688     0572  09A1               	comf	___aldiv@divisor+1,f
  3689     0573  09A2               	comf	___aldiv@divisor+2,f
  3690     0574  09A3               	comf	___aldiv@divisor+3,f
  3691     0575  0AA0               	incf	___aldiv@divisor,f
  3692     0576  1903               	skipnz
  3693     0577  0AA1               	incf	___aldiv@divisor+1,f
  3694     0578  1903               	skipnz
  3695     0579  0AA2               	incf	___aldiv@divisor+2,f
  3696     057A  1903               	skipnz
  3697     057B  0AA3               	incf	___aldiv@divisor+3,f
  3698     057C  3001               	movlw	1
  3699     057D  00A9               	movwf	___aldiv@sign
  3700     057E                     l345:
  3701     057E  1FA7               	btfss	___aldiv@dividend+3,7
  3702     057F  2D81               	goto	u2111
  3703     0580  2D82               	goto	u2110
  3704     0581                     u2111:
  3705     0581  2D8F               	goto	l2095
  3706     0582                     u2110:
  3707     0582                     l2091:
  3708     0582  09A4               	comf	___aldiv@dividend,f
  3709     0583  09A5               	comf	___aldiv@dividend+1,f
  3710     0584  09A6               	comf	___aldiv@dividend+2,f
  3711     0585  09A7               	comf	___aldiv@dividend+3,f
  3712     0586  0AA4               	incf	___aldiv@dividend,f
  3713     0587  1903               	skipnz
  3714     0588  0AA5               	incf	___aldiv@dividend+1,f
  3715     0589  1903               	skipnz
  3716     058A  0AA6               	incf	___aldiv@dividend+2,f
  3717     058B  1903               	skipnz
  3718     058C  0AA7               	incf	___aldiv@dividend+3,f
  3719     058D                     l2093:
  3720     058D  3001               	movlw	1
  3721     058E  06A9               	xorwf	___aldiv@sign,f
  3722     058F                     l2095:
  3723     058F  3000               	movlw	0
  3724     0590  00AD               	movwf	___aldiv@quotient+3
  3725     0591  3000               	movlw	0
  3726     0592  00AC               	movwf	___aldiv@quotient+2
  3727     0593  3000               	movlw	0
  3728     0594  00AB               	movwf	___aldiv@quotient+1
  3729     0595  3000               	movlw	0
  3730     0596  00AA               	movwf	___aldiv@quotient
  3731     0597                     l2097:
  3732     0597  0823               	movf	___aldiv@divisor+3,w
  3733     0598  0422               	iorwf	___aldiv@divisor+2,w
  3734     0599  0421               	iorwf	___aldiv@divisor+1,w
  3735     059A  0420               	iorwf	___aldiv@divisor,w
  3736     059B  1903               	skipnz
  3737     059C  2D9E               	goto	u2121
  3738     059D  2D9F               	goto	u2120
  3739     059E                     u2121:
  3740     059E  2DEA               	goto	l2117
  3741     059F                     u2120:
  3742     059F                     l2099:
  3743     059F  3001               	movlw	1
  3744     05A0  00A8               	movwf	___aldiv@counter
  3745     05A1  2DAD               	goto	l2103
  3746     05A2                     l2101:
  3747     05A2  3001               	movlw	1
  3748     05A3  00F3               	movwf	??___aldiv
  3749     05A4                     u2135:
  3750     05A4  1003               	clrc
  3751     05A5  0DA0               	rlf	___aldiv@divisor,f
  3752     05A6  0DA1               	rlf	___aldiv@divisor+1,f
  3753     05A7  0DA2               	rlf	___aldiv@divisor+2,f
  3754     05A8  0DA3               	rlf	___aldiv@divisor+3,f
  3755     05A9  0BF3               	decfsz	??___aldiv,f
  3756     05AA  2DA4               	goto	u2135
  3757     05AB  3001               	movlw	1
  3758     05AC  07A8               	addwf	___aldiv@counter,f
  3759     05AD                     l2103:
  3760     05AD  1FA3               	btfss	___aldiv@divisor+3,7
  3761     05AE  2DB0               	goto	u2141
  3762     05AF  2DB1               	goto	u2140
  3763     05B0                     u2141:
  3764     05B0  2DA2               	goto	l2101
  3765     05B1                     u2140:
  3766     05B1                     l2105:
  3767     05B1  3001               	movlw	1
  3768     05B2  00F3               	movwf	??___aldiv
  3769     05B3                     u2155:
  3770     05B3  1003               	clrc
  3771     05B4  0DAA               	rlf	___aldiv@quotient,f
  3772     05B5  0DAB               	rlf	___aldiv@quotient+1,f
  3773     05B6  0DAC               	rlf	___aldiv@quotient+2,f
  3774     05B7  0DAD               	rlf	___aldiv@quotient+3,f
  3775     05B8  0BF3               	decfsz	??___aldiv,f
  3776     05B9  2DB3               	goto	u2155
  3777     05BA                     l2107:
  3778     05BA  0823               	movf	___aldiv@divisor+3,w
  3779     05BB  0227               	subwf	___aldiv@dividend+3,w
  3780     05BC  1D03               	skipz
  3781     05BD  2DC8               	goto	u2165
  3782     05BE  0822               	movf	___aldiv@divisor+2,w
  3783     05BF  0226               	subwf	___aldiv@dividend+2,w
  3784     05C0  1D03               	skipz
  3785     05C1  2DC8               	goto	u2165
  3786     05C2  0821               	movf	___aldiv@divisor+1,w
  3787     05C3  0225               	subwf	___aldiv@dividend+1,w
  3788     05C4  1D03               	skipz
  3789     05C5  2DC8               	goto	u2165
  3790     05C6  0820               	movf	___aldiv@divisor,w
  3791     05C7  0224               	subwf	___aldiv@dividend,w
  3792     05C8                     u2165:
  3793     05C8  1C03               	skipc
  3794     05C9  2DCB               	goto	u2161
  3795     05CA  2DCC               	goto	u2160
  3796     05CB                     u2161:
  3797     05CB  2DDB               	goto	l2113
  3798     05CC                     u2160:
  3799     05CC                     l2109:
  3800     05CC  0820               	movf	___aldiv@divisor,w
  3801     05CD  02A4               	subwf	___aldiv@dividend,f
  3802     05CE  0821               	movf	___aldiv@divisor+1,w
  3803     05CF  1C03               	skipc
  3804     05D0  0F21               	incfsz	___aldiv@divisor+1,w
  3805     05D1  02A5               	subwf	___aldiv@dividend+1,f
  3806     05D2  0822               	movf	___aldiv@divisor+2,w
  3807     05D3  1C03               	skipc
  3808     05D4  0F22               	incfsz	___aldiv@divisor+2,w
  3809     05D5  02A6               	subwf	___aldiv@dividend+2,f
  3810     05D6  0823               	movf	___aldiv@divisor+3,w
  3811     05D7  1C03               	skipc
  3812     05D8  0F23               	incfsz	___aldiv@divisor+3,w
  3813     05D9  02A7               	subwf	___aldiv@dividend+3,f
  3814     05DA                     l2111:
  3815     05DA  142A               	bsf	___aldiv@quotient,0
  3816     05DB                     l2113:
  3817     05DB  3001               	movlw	1
  3818     05DC                     u2175:
  3819     05DC  1003               	clrc
  3820     05DD  0CA3               	rrf	___aldiv@divisor+3,f
  3821     05DE  0CA2               	rrf	___aldiv@divisor+2,f
  3822     05DF  0CA1               	rrf	___aldiv@divisor+1,f
  3823     05E0  0CA0               	rrf	___aldiv@divisor,f
  3824     05E1  3EFF               	addlw	-1
  3825     05E2  1D03               	skipz
  3826     05E3  2DDC               	goto	u2175
  3827     05E4                     l2115:
  3828     05E4  3001               	movlw	1
  3829     05E5  02A8               	subwf	___aldiv@counter,f
  3830     05E6  1D03               	btfss	3,2
  3831     05E7  2DE9               	goto	u2181
  3832     05E8  2DEA               	goto	u2180
  3833     05E9                     u2181:
  3834     05E9  2DB1               	goto	l2105
  3835     05EA                     u2180:
  3836     05EA                     l2117:
  3837     05EA  0829               	movf	___aldiv@sign,w
  3838     05EB  1903               	btfsc	3,2
  3839     05EC  2DEE               	goto	u2191
  3840     05ED  2DEF               	goto	u2190
  3841     05EE                     u2191:
  3842     05EE  2DFA               	goto	l2121
  3843     05EF                     u2190:
  3844     05EF                     l2119:
  3845     05EF  09AA               	comf	___aldiv@quotient,f
  3846     05F0  09AB               	comf	___aldiv@quotient+1,f
  3847     05F1  09AC               	comf	___aldiv@quotient+2,f
  3848     05F2  09AD               	comf	___aldiv@quotient+3,f
  3849     05F3  0AAA               	incf	___aldiv@quotient,f
  3850     05F4  1903               	skipnz
  3851     05F5  0AAB               	incf	___aldiv@quotient+1,f
  3852     05F6  1903               	skipnz
  3853     05F7  0AAC               	incf	___aldiv@quotient+2,f
  3854     05F8  1903               	skipnz
  3855     05F9  0AAD               	incf	___aldiv@quotient+3,f
  3856     05FA                     l2121:
  3857     05FA  082D               	movf	___aldiv@quotient+3,w
  3858     05FB  00A3               	movwf	?___aldiv+3
  3859     05FC  082C               	movf	___aldiv@quotient+2,w
  3860     05FD  00A2               	movwf	?___aldiv+2
  3861     05FE  082B               	movf	___aldiv@quotient+1,w
  3862     05FF  00A1               	movwf	?___aldiv+1
  3863     0600  082A               	movf	___aldiv@quotient,w
  3864     0601  00A0               	movwf	?___aldiv
  3865     0602                     l355:
  3866     0602  0008               	return
  3867     0603                     __end_of___aldiv:
  3868                           
  3869                           	psect	text16
  3870     0E15                     __ptext16:	
  3871 ;; *************** function _Timer1_Init *****************
  3872 ;; Defined at:
  3873 ;;		line 52 in file "victim.c"
  3874 ;; Parameters:    Size  Location     Type
  3875 ;;		None
  3876 ;; Auto vars:     Size  Location     Type
  3877 ;;		None
  3878 ;; Return value:  Size  Location     Type
  3879 ;;                  1    wreg      void 
  3880 ;; Registers used:
  3881 ;;		None
  3882 ;; Tracked objects:
  3883 ;;		On entry : 0/0
  3884 ;;		On exit  : 0/0
  3885 ;;		Unchanged: 0/0
  3886 ;; Data sizes:     COMMON   BANK0   BANK1   BANK3   BANK2
  3887 ;;      Params:         0       0       0       0       0
  3888 ;;      Locals:         0       0       0       0       0
  3889 ;;      Temps:          0       0       0       0       0
  3890 ;;      Totals:         0       0       0       0       0
  3891 ;;Total ram usage:        0 bytes
  3892 ;; Hardware stack levels used: 1
  3893 ;; Hardware stack levels required when called: 1
  3894 ;; This function calls:
  3895 ;;		Nothing
  3896 ;; This function is called by:
  3897 ;;		_main
  3898 ;; This function uses a non-reentrant model
  3899 ;;
  3900                           
  3901     0E15                     _Timer1_Init:	
  3902                           ;psect for function _Timer1_Init
  3903                           
  3904     0E15                     l1729:	
  3905                           ;incstack = 0
  3906                           ; Regs used in _Timer1_Init: []
  3907                           
  3908     0E15  3031               	movlw	49
  3909     0E16  1283               	bcf	3,5	;RP0=0, select bank0
  3910     0E17  1303               	bcf	3,6	;RP1=0, select bank0
  3911     0E18  0090               	movwf	16	;volatile
  3912     0E19  300B               	movlw	11
  3913     0E1A  008F               	movwf	15	;volatile
  3914     0E1B  30DC               	movlw	220
  3915     0E1C  008E               	movwf	14	;volatile
  3916     0E1D  1683               	bsf	3,5	;RP0=1, select bank1
  3917     0E1E  1303               	bcf	3,6	;RP1=0, select bank1
  3918     0E1F  140C               	bsf	12,0	;volatile
  3919     0E20  170B               	bsf	11,6	;volatile
  3920     0E21  178B               	bsf	11,7	;volatile
  3921     0E22                     l146:
  3922     0E22  0008               	return
  3923     0E23                     __end_of_Timer1_Init:
  3924                           
  3925                           	psect	text17
  3926     0DEF                     __ptext17:	
  3927 ;; *************** function _Leds_Off *****************
  3928 ;; Defined at:
  3929 ;;		line 36 in file "victim.c"
  3930 ;; Parameters:    Size  Location     Type
  3931 ;;		None
  3932 ;; Auto vars:     Size  Location     Type
  3933 ;;		None
  3934 ;; Return value:  Size  Location     Type
  3935 ;;                  1    wreg      void 
  3936 ;; Registers used:
  3937 ;;		None
  3938 ;; Tracked objects:
  3939 ;;		On entry : 0/0
  3940 ;;		On exit  : 0/0
  3941 ;;		Unchanged: 0/0
  3942 ;; Data sizes:     COMMON   BANK0   BANK1   BANK3   BANK2
  3943 ;;      Params:         0       0       0       0       0
  3944 ;;      Locals:         0       0       0       0       0
  3945 ;;      Temps:          0       0       0       0       0
  3946 ;;      Totals:         0       0       0       0       0
  3947 ;;Total ram usage:        0 bytes
  3948 ;; Hardware stack levels used: 1
  3949 ;; Hardware stack levels required when called: 1
  3950 ;; This function calls:
  3951 ;;		Nothing
  3952 ;; This function is called by:
  3953 ;;		_main
  3954 ;; This function uses a non-reentrant model
  3955 ;;
  3956                           
  3957     0DEF                     _Leds_Off:	
  3958                           ;psect for function _Leds_Off
  3959                           
  3960     0DEF                     l1629:	
  3961                           ;incstack = 0
  3962                           ; Regs used in _Leds_Off: []
  3963                           
  3964     0DEF  1283               	bcf	3,5	;RP0=0, select bank0
  3965     0DF0  1303               	bcf	3,6	;RP1=0, select bank0
  3966     0DF1  1086               	bcf	6,1	;volatile
  3967     0DF2  1106               	bcf	6,2	;volatile
  3968     0DF3  1206               	bcf	6,4	;volatile
  3969     0DF4  1286               	bcf	6,5	;volatile
  3970     0DF5  1186               	bcf	6,3	;volatile
  3971     0DF6                     l81:
  3972     0DF6  0008               	return
  3973     0DF7                     __end_of_Leds_Off:
  3974                           
  3975                           	psect	text18
  3976     0603                     __ptext18:	
  3977 ;; *************** function _Lcd_Write_String *****************
  3978 ;; Defined at:
  3979 ;;		line 41 in file "victim.c"
  3980 ;; Parameters:    Size  Location     Type
  3981 ;;  a               2    4[COMMON] PTR unsigned char 
  3982 ;;		 -> STR_13(18), STR_12(15), STR_11(15), STR_10(15), 
  3983 ;;		 -> STR_9(13), STR_8(17), STR_7(17), STR_6(17), 
  3984 ;;		 -> main@s(16), STR_3(17), STR_2(17), STR_1(17), 
  3985 ;; Auto vars:     Size  Location     Type
  3986 ;;  y               1    1[BANK0 ] unsigned char 
  3987 ;;  t               1    0[BANK0 ] unsigned char 
  3988 ;;  i               2    2[BANK0 ] int 
  3989 ;; Return value:  Size  Location     Type
  3990 ;;                  1    wreg      void 
  3991 ;; Registers used:
  3992 ;;		wreg, fsr0l, fsr0h, status,2, status,0, pclath, btemp1, cstack
  3993 ;; Tracked objects:
  3994 ;;		On entry : 0/0
  3995 ;;		On exit  : 0/0
  3996 ;;		Unchanged: 0/0
  3997 ;; Data sizes:     COMMON   BANK0   BANK1   BANK3   BANK2
  3998 ;;      Params:         2       0       0       0       0
  3999 ;;      Locals:         0       4       0       0       0
  4000 ;;      Temps:          3       0       0       0       0
  4001 ;;      Totals:         5       4       0       0       0
  4002 ;;Total ram usage:        9 bytes
  4003 ;; Hardware stack levels used: 1
  4004 ;; Hardware stack levels required when called: 2
  4005 ;; This function calls:
  4006 ;;		_Lcd_Port
  4007 ;; This function is called by:
  4008 ;;		_main
  4009 ;; This function uses a non-reentrant model
  4010 ;;
  4011                           
  4012     0603                     _Lcd_Write_String:	
  4013                           ;psect for function _Lcd_Write_String
  4014                           
  4015     0603                     l1655:	
  4016                           ;incstack = 0
  4017                           ; Regs used in _Lcd_Write_String: [wreg-fsr0h+status,2+status,0+pclath+btemp1+cstack]
  4018                           
  4019     0603  1283               	bcf	3,5	;RP0=0, select bank0
  4020     0604  1303               	bcf	3,6	;RP1=0, select bank0
  4021     0605  01A2               	clrf	Lcd_Write_String@i
  4022     0606  01A3               	clrf	Lcd_Write_String@i+1
  4023     0607  2E6D               	goto	l1683
  4024     0608                     l1657:
  4025     0608  0822               	movf	Lcd_Write_String@i,w
  4026     0609  0774               	addwf	Lcd_Write_String@a,w
  4027     060A  00F7               	movwf	??_Lcd_Write_String+1
  4028     060B  0875               	movf	Lcd_Write_String@a+1,w
  4029     060C  00F6               	movwf	??_Lcd_Write_String
  4030     060D  1803               	skipnc
  4031     060E  0AF6               	incf	??_Lcd_Write_String,f
  4032     060F  1FA2               	btfss	Lcd_Write_String@i,7
  4033     0610  2E12               	goto	u1490
  4034     0611  03F6               	decf	??_Lcd_Write_String,f
  4035     0612                     u1490:
  4036     0612  0876               	movf	??_Lcd_Write_String,w
  4037     0613  00F8               	movwf	??_Lcd_Write_String+2
  4038     0614  0878               	movf	??_Lcd_Write_String+2,w
  4039     0615  1283               	bcf	3,5	;RP0=0, select bank0
  4040     0616  1303               	bcf	3,6	;RP1=0, select bank0
  4041     0617  00FF               	movwf	btemp1
  4042     0618  0877               	movf	??_Lcd_Write_String+1,w
  4043     0619  0084               	movwf	4
  4044     061A  120A  118A  240E  120A  118A  	fcall	stringtab
  4045     061F  00A0               	movwf	Lcd_Write_String@t
  4046     0620                     l1659:
  4047     0620  300F               	movlw	15
  4048     0621  05A0               	andwf	Lcd_Write_String@t,f
  4049     0622                     l1661:
  4050     0622  0822               	movf	Lcd_Write_String@i,w
  4051     0623  0774               	addwf	Lcd_Write_String@a,w
  4052     0624  00F7               	movwf	??_Lcd_Write_String+1
  4053     0625  0875               	movf	Lcd_Write_String@a+1,w
  4054     0626  00F6               	movwf	??_Lcd_Write_String
  4055     0627  1803               	skipnc
  4056     0628  0AF6               	incf	??_Lcd_Write_String,f
  4057     0629  1FA2               	btfss	Lcd_Write_String@i,7
  4058     062A  2E2C               	goto	u1500
  4059     062B  03F6               	decf	??_Lcd_Write_String,f
  4060     062C                     u1500:
  4061     062C  0876               	movf	??_Lcd_Write_String,w
  4062     062D  00F8               	movwf	??_Lcd_Write_String+2
  4063     062E  0878               	movf	??_Lcd_Write_String+2,w
  4064     062F  1283               	bcf	3,5	;RP0=0, select bank0
  4065     0630  1303               	bcf	3,6	;RP1=0, select bank0
  4066     0631  00FF               	movwf	btemp1
  4067     0632  0877               	movf	??_Lcd_Write_String+1,w
  4068     0633  0084               	movwf	4
  4069     0634  120A  118A  240E  120A  118A  	fcall	stringtab
  4070     0639  00A1               	movwf	Lcd_Write_String@y
  4071     063A  30F0               	movlw	240
  4072     063B  05A1               	andwf	Lcd_Write_String@y,f
  4073     063C                     l1663:
  4074     063C  1508               	bsf	8,2	;volatile
  4075     063D                     l1665:
  4076     063D  0821               	movf	Lcd_Write_String@y,w
  4077     063E  00F6               	movwf	??_Lcd_Write_String
  4078     063F  3004               	movlw	4
  4079     0640                     u1515:
  4080     0640  1003               	clrc
  4081     0641  0CF6               	rrf	??_Lcd_Write_String,f
  4082     0642  3EFF               	addlw	-1
  4083     0643  1D03               	skipz
  4084     0644  2E40               	goto	u1515
  4085     0645  0876               	movf	??_Lcd_Write_String,w
  4086     0646  120A  158A  2694  120A  118A  	fcall	_Lcd_Port
  4087     064B                     l1667:
  4088     064B  1283               	bcf	3,5	;RP0=0, select bank0
  4089     064C  1303               	bcf	3,6	;RP1=0, select bank0
  4090     064D  1588               	bsf	8,3	;volatile
  4091     064E                     l1669:
  4092     064E  3042               	movlw	66
  4093     064F  00F6               	movwf	??_Lcd_Write_String
  4094     0650                     u2577:
  4095     0650  0BF6               	decfsz	??_Lcd_Write_String,f
  4096     0651  2E50               	goto	u2577
  4097     0652  0000               	nop
  4098     0653                     l1671:
  4099     0653  1283               	bcf	3,5	;RP0=0, select bank0
  4100     0654  1303               	bcf	3,6	;RP1=0, select bank0
  4101     0655  1188               	bcf	8,3	;volatile
  4102     0656                     l1673:
  4103     0656  0820               	movf	Lcd_Write_String@t,w
  4104     0657  120A  158A  2694  120A  118A  	fcall	_Lcd_Port
  4105     065C                     l1675:
  4106     065C  1283               	bcf	3,5	;RP0=0, select bank0
  4107     065D  1303               	bcf	3,6	;RP1=0, select bank0
  4108     065E  1588               	bsf	8,3	;volatile
  4109     065F                     l1677:
  4110     065F  3042               	movlw	66
  4111     0660  00F6               	movwf	??_Lcd_Write_String
  4112     0661                     u2587:
  4113     0661  0BF6               	decfsz	??_Lcd_Write_String,f
  4114     0662  2E61               	goto	u2587
  4115     0663  0000               	nop
  4116     0664                     l1679:
  4117     0664  1283               	bcf	3,5	;RP0=0, select bank0
  4118     0665  1303               	bcf	3,6	;RP1=0, select bank0
  4119     0666  1188               	bcf	8,3	;volatile
  4120     0667                     l1681:
  4121     0667  3001               	movlw	1
  4122     0668  07A2               	addwf	Lcd_Write_String@i,f
  4123     0669  1803               	skipnc
  4124     066A  0AA3               	incf	Lcd_Write_String@i+1,f
  4125     066B  3000               	movlw	0
  4126     066C  07A3               	addwf	Lcd_Write_String@i+1,f
  4127     066D                     l1683:
  4128     066D  0822               	movf	Lcd_Write_String@i,w
  4129     066E  0774               	addwf	Lcd_Write_String@a,w
  4130     066F  00F7               	movwf	??_Lcd_Write_String+1
  4131     0670  0875               	movf	Lcd_Write_String@a+1,w
  4132     0671  00F6               	movwf	??_Lcd_Write_String
  4133     0672  1803               	skipnc
  4134     0673  0AF6               	incf	??_Lcd_Write_String,f
  4135     0674  1FA2               	btfss	Lcd_Write_String@i,7
  4136     0675  2E77               	goto	u1520
  4137     0676  03F6               	decf	??_Lcd_Write_String,f
  4138     0677                     u1520:
  4139     0677  0876               	movf	??_Lcd_Write_String,w
  4140     0678  00F8               	movwf	??_Lcd_Write_String+2
  4141     0679  0878               	movf	??_Lcd_Write_String+2,w
  4142     067A  1283               	bcf	3,5	;RP0=0, select bank0
  4143     067B  1303               	bcf	3,6	;RP1=0, select bank0
  4144     067C  00FF               	movwf	btemp1
  4145     067D  0877               	movf	??_Lcd_Write_String+1,w
  4146     067E  0084               	movwf	4
  4147     067F  120A  118A  240E  120A  118A  	fcall	stringtab
  4148     0684  3A00               	xorlw	0
  4149     0685  1D03               	skipz
  4150     0686  2E88               	goto	u1531
  4151     0687  2E89               	goto	u1530
  4152     0688                     u1531:
  4153     0688  2E08               	goto	l1657
  4154     0689                     u1530:
  4155     0689                     l109:
  4156     0689  0008               	return
  4157     068A                     __end_of_Lcd_Write_String:
  4158                           
  4159                           	psect	text19
  4160     0F61                     __ptext19:	
  4161 ;; *************** function _Lcd_Set_Cursor *****************
  4162 ;; Defined at:
  4163 ;;		line 40 in file "victim.c"
  4164 ;; Parameters:    Size  Location     Type
  4165 ;;  a               1    wreg     unsigned char 
  4166 ;;  b               1    7[COMMON] unsigned char 
  4167 ;; Auto vars:     Size  Location     Type
  4168 ;;  a               1    0[BANK0 ] unsigned char 
  4169 ;;  t               1    3[BANK0 ] unsigned char 
  4170 ;;  y               1    2[BANK0 ] unsigned char 
  4171 ;;  z               1    1[BANK0 ] unsigned char 
  4172 ;; Return value:  Size  Location     Type
  4173 ;;                  1    wreg      void 
  4174 ;; Registers used:
  4175 ;;		wreg, status,2, status,0, pclath, cstack
  4176 ;; Tracked objects:
  4177 ;;		On entry : 0/0
  4178 ;;		On exit  : 0/0
  4179 ;;		Unchanged: 0/0
  4180 ;; Data sizes:     COMMON   BANK0   BANK1   BANK3   BANK2
  4181 ;;      Params:         1       0       0       0       0
  4182 ;;      Locals:         0       4       0       0       0
  4183 ;;      Temps:          1       0       0       0       0
  4184 ;;      Totals:         2       4       0       0       0
  4185 ;;Total ram usage:        6 bytes
  4186 ;; Hardware stack levels used: 1
  4187 ;; Hardware stack levels required when called: 2
  4188 ;; This function calls:
  4189 ;;		_Lcd_Cmd
  4190 ;; This function is called by:
  4191 ;;		_main
  4192 ;; This function uses a non-reentrant model
  4193 ;;
  4194                           
  4195     0F61                     _Lcd_Set_Cursor:	
  4196                           ;psect for function _Lcd_Set_Cursor
  4197                           
  4198                           
  4199                           ;incstack = 0
  4200                           ; Regs used in _Lcd_Set_Cursor: [wreg+status,2+status,0+pclath+cstack]
  4201                           ;Lcd_Set_Cursor@a stored from wreg
  4202     0F61  1283               	bcf	3,5	;RP0=0, select bank0
  4203     0F62  1303               	bcf	3,6	;RP1=0, select bank0
  4204     0F63  00A0               	movwf	Lcd_Set_Cursor@a
  4205     0F64                     l1633:
  4206     0F64  0320               	decf	Lcd_Set_Cursor@a,w
  4207     0F65  1D03               	btfss	3,2
  4208     0F66  2F68               	goto	u1461
  4209     0F67  2F69               	goto	u1460
  4210     0F68                     u1461:
  4211     0F68  2F89               	goto	l1645
  4212     0F69                     u1460:
  4213     0F69                     l1635:
  4214     0F69  0877               	movf	Lcd_Set_Cursor@b,w
  4215     0F6A  3E7F               	addlw	127
  4216     0F6B  00A3               	movwf	Lcd_Set_Cursor@t
  4217     0F6C  0823               	movf	Lcd_Set_Cursor@t,w
  4218     0F6D  00F8               	movwf	??_Lcd_Set_Cursor
  4219     0F6E  3004               	movlw	4
  4220     0F6F                     u1475:
  4221     0F6F  1003               	clrc
  4222     0F70  0CF8               	rrf	??_Lcd_Set_Cursor,f
  4223     0F71  3EFF               	addlw	-1
  4224     0F72  1D03               	skipz
  4225     0F73  2F6F               	goto	u1475
  4226     0F74  0878               	movf	??_Lcd_Set_Cursor,w
  4227     0F75  00A1               	movwf	Lcd_Set_Cursor@z
  4228     0F76                     l1637:
  4229     0F76  0823               	movf	Lcd_Set_Cursor@t,w
  4230     0F77  00A2               	movwf	Lcd_Set_Cursor@y
  4231     0F78                     l1639:
  4232     0F78  300F               	movlw	15
  4233     0F79  05A2               	andwf	Lcd_Set_Cursor@y,f
  4234     0F7A                     l1641:
  4235     0F7A  0821               	movf	Lcd_Set_Cursor@z,w
  4236     0F7B  120A  158A  267A  120A  158A  	fcall	_Lcd_Cmd
  4237     0F80                     l1643:
  4238     0F80  1283               	bcf	3,5	;RP0=0, select bank0
  4239     0F81  1303               	bcf	3,6	;RP1=0, select bank0
  4240     0F82  0822               	movf	Lcd_Set_Cursor@y,w
  4241     0F83  120A  158A  267A  120A  158A  	fcall	_Lcd_Cmd
  4242     0F88  2FA8               	goto	l103
  4243     0F89                     l1645:
  4244     0F89  0877               	movf	Lcd_Set_Cursor@b,w
  4245     0F8A  3EBF               	addlw	191
  4246     0F8B  00A3               	movwf	Lcd_Set_Cursor@t
  4247     0F8C  0823               	movf	Lcd_Set_Cursor@t,w
  4248     0F8D  00F8               	movwf	??_Lcd_Set_Cursor
  4249     0F8E  3004               	movlw	4
  4250     0F8F                     u1485:
  4251     0F8F  1003               	clrc
  4252     0F90  0CF8               	rrf	??_Lcd_Set_Cursor,f
  4253     0F91  3EFF               	addlw	-1
  4254     0F92  1D03               	skipz
  4255     0F93  2F8F               	goto	u1485
  4256     0F94  0878               	movf	??_Lcd_Set_Cursor,w
  4257     0F95  00A1               	movwf	Lcd_Set_Cursor@z
  4258     0F96                     l1647:
  4259     0F96  0823               	movf	Lcd_Set_Cursor@t,w
  4260     0F97  00A2               	movwf	Lcd_Set_Cursor@y
  4261     0F98                     l1649:
  4262     0F98  300F               	movlw	15
  4263     0F99  05A2               	andwf	Lcd_Set_Cursor@y,f
  4264     0F9A                     l1651:
  4265     0F9A  0821               	movf	Lcd_Set_Cursor@z,w
  4266     0F9B  120A  158A  267A  120A  158A  	fcall	_Lcd_Cmd
  4267     0FA0                     l1653:
  4268     0FA0  1283               	bcf	3,5	;RP0=0, select bank0
  4269     0FA1  1303               	bcf	3,6	;RP1=0, select bank0
  4270     0FA2  0822               	movf	Lcd_Set_Cursor@y,w
  4271     0FA3  120A  158A  267A  120A  158A  	fcall	_Lcd_Cmd
  4272     0FA8                     l103:
  4273     0FA8  0008               	return
  4274     0FA9                     __end_of_Lcd_Set_Cursor:
  4275                           
  4276                           	psect	text20
  4277     0755                     __ptext20:	
  4278 ;; *************** function _Lcd_Init *****************
  4279 ;; Defined at:
  4280 ;;		line 42 in file "victim.c"
  4281 ;; Parameters:    Size  Location     Type
  4282 ;;		None
  4283 ;; Auto vars:     Size  Location     Type
  4284 ;;		None
  4285 ;; Return value:  Size  Location     Type
  4286 ;;                  1    wreg      void 
  4287 ;; Registers used:
  4288 ;;		wreg, status,2, status,0, pclath, cstack
  4289 ;; Tracked objects:
  4290 ;;		On entry : 0/0
  4291 ;;		On exit  : 0/0
  4292 ;;		Unchanged: 0/0
  4293 ;; Data sizes:     COMMON   BANK0   BANK1   BANK3   BANK2
  4294 ;;      Params:         0       0       0       0       0
  4295 ;;      Locals:         0       0       0       0       0
  4296 ;;      Temps:          2       0       0       0       0
  4297 ;;      Totals:         2       0       0       0       0
  4298 ;;Total ram usage:        2 bytes
  4299 ;; Hardware stack levels used: 1
  4300 ;; Hardware stack levels required when called: 2
  4301 ;; This function calls:
  4302 ;;		_Lcd_Cmd
  4303 ;;		_Lcd_Port
  4304 ;; This function is called by:
  4305 ;;		_main
  4306 ;; This function uses a non-reentrant model
  4307 ;;
  4308                           
  4309     0755                     _Lcd_Init:	
  4310                           ;psect for function _Lcd_Init
  4311                           
  4312     0755                     l1685:	
  4313                           ;incstack = 0
  4314                           ; Regs used in _Lcd_Init: [wreg+status,2+status,0+pclath+cstack]
  4315                           
  4316     0755  3000               	movlw	0
  4317     0756  120A  158A  2694  120A  118A  	fcall	_Lcd_Port
  4318     075B                     l1687:
  4319     075B  3082               	movlw	130
  4320     075C  00F8               	movwf	??_Lcd_Init+1
  4321     075D  30DD               	movlw	221
  4322     075E  00F7               	movwf	??_Lcd_Init
  4323     075F                     u2597:
  4324     075F  0BF7               	decfsz	??_Lcd_Init,f
  4325     0760  2F5F               	goto	u2597
  4326     0761  0BF8               	decfsz	??_Lcd_Init+1,f
  4327     0762  2F5F               	goto	u2597
  4328     0763  2F64               	nop2
  4329     0764                     l1689:
  4330     0764  3003               	movlw	3
  4331     0765  120A  158A  267A  120A  118A  	fcall	_Lcd_Cmd
  4332     076A  3021               	movlw	33
  4333     076B  00F8               	movwf	??_Lcd_Init+1
  4334     076C  3076               	movlw	118
  4335     076D  00F7               	movwf	??_Lcd_Init
  4336     076E                     u2607:
  4337     076E  0BF7               	decfsz	??_Lcd_Init,f
  4338     076F  2F6E               	goto	u2607
  4339     0770  0BF8               	decfsz	??_Lcd_Init+1,f
  4340     0771  2F6E               	goto	u2607
  4341     0772  0000               	nop
  4342     0773                     l1691:
  4343     0773  3003               	movlw	3
  4344     0774  120A  158A  267A  120A  118A  	fcall	_Lcd_Cmd
  4345     0779                     l1693:
  4346     0779  3048               	movlw	72
  4347     077A  00F8               	movwf	??_Lcd_Init+1
  4348     077B  306C               	movlw	108
  4349     077C  00F7               	movwf	??_Lcd_Init
  4350     077D                     u2617:
  4351     077D  0BF7               	decfsz	??_Lcd_Init,f
  4352     077E  2F7D               	goto	u2617
  4353     077F  0BF8               	decfsz	??_Lcd_Init+1,f
  4354     0780  2F7D               	goto	u2617
  4355     0781  0000               	nop
  4356     0782  3003               	movlw	3
  4357     0783  120A  158A  267A  120A  118A  	fcall	_Lcd_Cmd
  4358     0788  3002               	movlw	2
  4359     0789  120A  158A  267A  120A  118A  	fcall	_Lcd_Cmd
  4360     078E  3002               	movlw	2
  4361     078F  120A  158A  267A  120A  118A  	fcall	_Lcd_Cmd
  4362     0794  3008               	movlw	8
  4363     0795  120A  158A  267A  120A  118A  	fcall	_Lcd_Cmd
  4364     079A  3000               	movlw	0
  4365     079B  120A  158A  267A  120A  118A  	fcall	_Lcd_Cmd
  4366     07A0  300C               	movlw	12
  4367     07A1  120A  158A  267A  120A  118A  	fcall	_Lcd_Cmd
  4368     07A6  3000               	movlw	0
  4369     07A7  120A  158A  267A  120A  118A  	fcall	_Lcd_Cmd
  4370     07AC  3006               	movlw	6
  4371     07AD  120A  158A  267A  120A  118A  	fcall	_Lcd_Cmd
  4372     07B2                     l112:
  4373     07B2  0008               	return
  4374     07B3                     __end_of_Lcd_Init:
  4375                           
  4376                           	psect	text21
  4377     0E08                     __ptext21:	
  4378 ;; *************** function _Lcd_Clear *****************
  4379 ;; Defined at:
  4380 ;;		line 39 in file "victim.c"
  4381 ;; Parameters:    Size  Location     Type
  4382 ;;		None
  4383 ;; Auto vars:     Size  Location     Type
  4384 ;;		None
  4385 ;; Return value:  Size  Location     Type
  4386 ;;                  1    wreg      void 
  4387 ;; Registers used:
  4388 ;;		wreg, status,2, status,0, pclath, cstack
  4389 ;; Tracked objects:
  4390 ;;		On entry : 0/0
  4391 ;;		On exit  : 0/0
  4392 ;;		Unchanged: 0/0
  4393 ;; Data sizes:     COMMON   BANK0   BANK1   BANK3   BANK2
  4394 ;;      Params:         0       0       0       0       0
  4395 ;;      Locals:         0       0       0       0       0
  4396 ;;      Temps:          0       0       0       0       0
  4397 ;;      Totals:         0       0       0       0       0
  4398 ;;Total ram usage:        0 bytes
  4399 ;; Hardware stack levels used: 1
  4400 ;; Hardware stack levels required when called: 3
  4401 ;; This function calls:
  4402 ;;		_Lcd_Cmd
  4403 ;; This function is called by:
  4404 ;;		_main
  4405 ;; This function uses a non-reentrant model
  4406 ;;
  4407                           
  4408     0E08                     _Lcd_Clear:	
  4409                           ;psect for function _Lcd_Clear
  4410                           
  4411     0E08                     l1631:	
  4412                           ;incstack = 0
  4413                           ; Regs used in _Lcd_Clear: [wreg+status,2+status,0+pclath+cstack]
  4414                           
  4415     0E08  3000               	movlw	0
  4416     0E09  120A  158A  267A  120A  158A  	fcall	_Lcd_Cmd
  4417     0E0E  3001               	movlw	1
  4418     0E0F  120A  158A  267A  120A  158A  	fcall	_Lcd_Cmd
  4419     0E14                     l98:
  4420     0E14  0008               	return
  4421     0E15                     __end_of_Lcd_Clear:
  4422                           
  4423                           	psect	text22
  4424     0E7A                     __ptext22:	
  4425 ;; *************** function _Lcd_Cmd *****************
  4426 ;; Defined at:
  4427 ;;		line 38 in file "victim.c"
  4428 ;; Parameters:    Size  Location     Type
  4429 ;;  a               1    wreg     unsigned char 
  4430 ;; Auto vars:     Size  Location     Type
  4431 ;;  a               1    6[COMMON] unsigned char 
  4432 ;; Return value:  Size  Location     Type
  4433 ;;                  1    wreg      void 
  4434 ;; Registers used:
  4435 ;;		wreg, status,2, status,0, pclath, cstack
  4436 ;; Tracked objects:
  4437 ;;		On entry : 0/0
  4438 ;;		On exit  : 0/0
  4439 ;;		Unchanged: 0/0
  4440 ;; Data sizes:     COMMON   BANK0   BANK1   BANK3   BANK2
  4441 ;;      Params:         0       0       0       0       0
  4442 ;;      Locals:         1       0       0       0       0
  4443 ;;      Temps:          2       0       0       0       0
  4444 ;;      Totals:         3       0       0       0       0
  4445 ;;Total ram usage:        3 bytes
  4446 ;; Hardware stack levels used: 1
  4447 ;; Hardware stack levels required when called: 1
  4448 ;; This function calls:
  4449 ;;		_Lcd_Port
  4450 ;; This function is called by:
  4451 ;;		_Lcd_Clear
  4452 ;;		_Lcd_Set_Cursor
  4453 ;;		_Lcd_Init
  4454 ;; This function uses a non-reentrant model
  4455 ;;
  4456                           
  4457     0E7A                     _Lcd_Cmd:	
  4458                           ;psect for function _Lcd_Cmd
  4459                           
  4460                           
  4461                           ;incstack = 0
  4462                           ; Regs used in _Lcd_Cmd: [wreg+status,2+status,0+pclath+cstack]
  4463                           ;Lcd_Cmd@a stored from wreg
  4464     0E7A  00F6               	movwf	Lcd_Cmd@a
  4465     0E7B                     l1565:
  4466     0E7B  1283               	bcf	3,5	;RP0=0, select bank0
  4467     0E7C  1303               	bcf	3,6	;RP1=0, select bank0
  4468     0E7D  1108               	bcf	8,2	;volatile
  4469     0E7E                     l1567:
  4470     0E7E  0876               	movf	Lcd_Cmd@a,w
  4471     0E7F  120A  158A  2694  120A  158A  	fcall	_Lcd_Port
  4472     0E84                     l1569:
  4473     0E84  1283               	bcf	3,5	;RP0=0, select bank0
  4474     0E85  1303               	bcf	3,6	;RP1=0, select bank0
  4475     0E86  1588               	bsf	8,3	;volatile
  4476     0E87                     l1571:
  4477     0E87  301A               	movlw	26
  4478     0E88  00F5               	movwf	??_Lcd_Cmd+1
  4479     0E89  30F8               	movlw	248
  4480     0E8A  00F4               	movwf	??_Lcd_Cmd
  4481     0E8B                     u2627:
  4482     0E8B  0BF4               	decfsz	??_Lcd_Cmd,f
  4483     0E8C  2E8B               	goto	u2627
  4484     0E8D  0BF5               	decfsz	??_Lcd_Cmd+1,f
  4485     0E8E  2E8B               	goto	u2627
  4486     0E8F  0000               	nop
  4487     0E90                     l1573:
  4488     0E90  1283               	bcf	3,5	;RP0=0, select bank0
  4489     0E91  1303               	bcf	3,6	;RP1=0, select bank0
  4490     0E92  1188               	bcf	8,3	;volatile
  4491     0E93                     l95:
  4492     0E93  0008               	return
  4493     0E94                     __end_of_Lcd_Cmd:
  4494                           
  4495                           	psect	text23
  4496     0E94                     __ptext23:	
  4497 ;; *************** function _Lcd_Port *****************
  4498 ;; Defined at:
  4499 ;;		line 37 in file "victim.c"
  4500 ;; Parameters:    Size  Location     Type
  4501 ;;  a               1    wreg     unsigned char 
  4502 ;; Auto vars:     Size  Location     Type
  4503 ;;  a               1    3[COMMON] unsigned char 
  4504 ;; Return value:  Size  Location     Type
  4505 ;;                  1    wreg      void 
  4506 ;; Registers used:
  4507 ;;		wreg
  4508 ;; Tracked objects:
  4509 ;;		On entry : 0/0
  4510 ;;		On exit  : 0/0
  4511 ;;		Unchanged: 0/0
  4512 ;; Data sizes:     COMMON   BANK0   BANK1   BANK3   BANK2
  4513 ;;      Params:         0       0       0       0       0
  4514 ;;      Locals:         1       0       0       0       0
  4515 ;;      Temps:          0       0       0       0       0
  4516 ;;      Totals:         1       0       0       0       0
  4517 ;;Total ram usage:        1 bytes
  4518 ;; Hardware stack levels used: 1
  4519 ;; Hardware stack levels required when called: 1
  4520 ;; This function calls:
  4521 ;;		Nothing
  4522 ;; This function is called by:
  4523 ;;		_Lcd_Cmd
  4524 ;;		_Lcd_Write_String
  4525 ;;		_Lcd_Init
  4526 ;; This function uses a non-reentrant model
  4527 ;;
  4528                           
  4529     0E94                     _Lcd_Port:	
  4530                           ;psect for function _Lcd_Port
  4531                           
  4532                           
  4533                           ;incstack = 0
  4534                           ; Regs used in _Lcd_Port: [wreg]
  4535                           ;Lcd_Port@a stored from wreg
  4536     0E94  00F3               	movwf	Lcd_Port@a
  4537     0E95                     l1505:
  4538     0E95  1C73               	btfss	Lcd_Port@a,0
  4539     0E96  2E98               	goto	u1201
  4540     0E97  2E99               	goto	u1200
  4541     0E98                     u1201:
  4542     0E98  2E9D               	goto	l84
  4543     0E99                     u1200:
  4544     0E99                     l1507:
  4545     0E99  1283               	bcf	3,5	;RP0=0, select bank0
  4546     0E9A  1303               	bcf	3,6	;RP1=0, select bank0
  4547     0E9B  1608               	bsf	8,4	;volatile
  4548     0E9C  2EA0               	goto	l85
  4549     0E9D                     l84:
  4550     0E9D  1283               	bcf	3,5	;RP0=0, select bank0
  4551     0E9E  1303               	bcf	3,6	;RP1=0, select bank0
  4552     0E9F  1208               	bcf	8,4	;volatile
  4553     0EA0                     l85:
  4554     0EA0  1CF3               	btfss	Lcd_Port@a,1
  4555     0EA1  2EA3               	goto	u1211
  4556     0EA2  2EA4               	goto	u1210
  4557     0EA3                     u1211:
  4558     0EA3  2EA6               	goto	l86
  4559     0EA4                     u1210:
  4560     0EA4                     l1509:
  4561     0EA4  1688               	bsf	8,5	;volatile
  4562     0EA5  2EA7               	goto	l87
  4563     0EA6                     l86:
  4564     0EA6  1288               	bcf	8,5	;volatile
  4565     0EA7                     l87:
  4566     0EA7  1D73               	btfss	Lcd_Port@a,2
  4567     0EA8  2EAA               	goto	u1221
  4568     0EA9  2EAB               	goto	u1220
  4569     0EAA                     u1221:
  4570     0EAA  2EAD               	goto	l88
  4571     0EAB                     u1220:
  4572     0EAB                     l1511:
  4573     0EAB  1708               	bsf	8,6	;volatile
  4574     0EAC  2EAE               	goto	l89
  4575     0EAD                     l88:
  4576     0EAD  1308               	bcf	8,6	;volatile
  4577     0EAE                     l89:
  4578     0EAE  1DF3               	btfss	Lcd_Port@a,3
  4579     0EAF  2EB1               	goto	u1231
  4580     0EB0  2EB2               	goto	u1230
  4581     0EB1                     u1231:
  4582     0EB1  2EB4               	goto	l90
  4583     0EB2                     u1230:
  4584     0EB2                     l1513:
  4585     0EB2  1788               	bsf	8,7	;volatile
  4586     0EB3  2EB5               	goto	l92
  4587     0EB4                     l90:
  4588     0EB4  1388               	bcf	8,7	;volatile
  4589     0EB5                     l92:
  4590     0EB5  0008               	return
  4591     0EB6                     __end_of_Lcd_Port:
  4592                           
  4593                           	psect	text24
  4594     0E41                     __ptext24:	
  4595 ;; *************** function _ADC_Read *****************
  4596 ;; Defined at:
  4597 ;;		line 50 in file "victim.c"
  4598 ;; Parameters:    Size  Location     Type
  4599 ;;		None
  4600 ;; Auto vars:     Size  Location     Type
  4601 ;;		None
  4602 ;; Return value:  Size  Location     Type
  4603 ;;                  2    3[COMMON] unsigned int 
  4604 ;; Registers used:
  4605 ;;		wreg
  4606 ;; Tracked objects:
  4607 ;;		On entry : 0/0
  4608 ;;		On exit  : 0/0
  4609 ;;		Unchanged: 0/0
  4610 ;; Data sizes:     COMMON   BANK0   BANK1   BANK3   BANK2
  4611 ;;      Params:         2       0       0       0       0
  4612 ;;      Locals:         0       0       0       0       0
  4613 ;;      Temps:          0       0       0       0       0
  4614 ;;      Totals:         2       0       0       0       0
  4615 ;;Total ram usage:        2 bytes
  4616 ;; Hardware stack levels used: 1
  4617 ;; Hardware stack levels required when called: 1
  4618 ;; This function calls:
  4619 ;;		Nothing
  4620 ;; This function is called by:
  4621 ;;		_main
  4622 ;; This function uses a non-reentrant model
  4623 ;;
  4624                           
  4625     0E41                     _ADC_Read:	
  4626                           ;psect for function _ADC_Read
  4627                           
  4628     0E41                     l1723:	
  4629                           ;incstack = 0
  4630                           ; Regs used in _ADC_Read: [wreg]
  4631                           
  4632     0E41  1283               	bcf	3,5	;RP0=0, select bank0
  4633     0E42  1303               	bcf	3,6	;RP1=0, select bank0
  4634     0E43  151F               	bsf	31,2	;volatile
  4635     0E44  2E46               	goto	l140
  4636     0E45                     l141:
  4637     0E45  0064               	clrwdt	;# 
  4638     0E46                     l140:
  4639     0E46  1283               	bcf	3,5	;RP0=0, select bank0
  4640     0E47  1303               	bcf	3,6	;RP1=0, select bank0
  4641     0E48  191F               	btfsc	31,2	;volatile
  4642     0E49  2E4B               	goto	u1581
  4643     0E4A  2E4C               	goto	u1580
  4644     0E4B                     u1581:
  4645     0E4B  2E45               	goto	l141
  4646     0E4C                     u1580:
  4647     0E4C                     l1725:
  4648     0E4C  081E               	movf	30,w	;volatile
  4649     0E4D  00F4               	movwf	?_ADC_Read+1
  4650     0E4E  1683               	bsf	3,5	;RP0=1, select bank1
  4651     0E4F  1303               	bcf	3,6	;RP1=0, select bank1
  4652     0E50  081E               	movf	30,w	;volatile
  4653     0E51  00F3               	movwf	?_ADC_Read
  4654     0E52                     l143:
  4655     0E52  0008               	return
  4656     0E53                     __end_of_ADC_Read:
  4657                           
  4658                           	psect	text25
  4659     0DFF                     __ptext25:	
  4660 ;; *************** function _ADC_Init *****************
  4661 ;; Defined at:
  4662 ;;		line 49 in file "victim.c"
  4663 ;; Parameters:    Size  Location     Type
  4664 ;;		None
  4665 ;; Auto vars:     Size  Location     Type
  4666 ;;		None
  4667 ;; Return value:  Size  Location     Type
  4668 ;;                  1    wreg      void 
  4669 ;; Registers used:
  4670 ;;		None
  4671 ;; Tracked objects:
  4672 ;;		On entry : 0/0
  4673 ;;		On exit  : 0/0
  4674 ;;		Unchanged: 0/0
  4675 ;; Data sizes:     COMMON   BANK0   BANK1   BANK3   BANK2
  4676 ;;      Params:         0       0       0       0       0
  4677 ;;      Locals:         0       0       0       0       0
  4678 ;;      Temps:          0       0       0       0       0
  4679 ;;      Totals:         0       0       0       0       0
  4680 ;;Total ram usage:        0 bytes
  4681 ;; Hardware stack levels used: 1
  4682 ;; Hardware stack levels required when called: 1
  4683 ;; This function calls:
  4684 ;;		Nothing
  4685 ;; This function is called by:
  4686 ;;		_main
  4687 ;; This function uses a non-reentrant model
  4688 ;;
  4689                           
  4690     0DFF                     _ADC_Init:	
  4691                           ;psect for function _ADC_Init
  4692                           
  4693     0DFF                     l1721:	
  4694                           ;incstack = 0
  4695                           ; Regs used in _ADC_Init: []
  4696                           
  4697     0DFF  3041               	movlw	65
  4698     0E00  1283               	bcf	3,5	;RP0=0, select bank0
  4699     0E01  1303               	bcf	3,6	;RP1=0, select bank0
  4700     0E02  009F               	movwf	31	;volatile
  4701     0E03  308E               	movlw	142
  4702     0E04  1683               	bsf	3,5	;RP0=1, select bank1
  4703     0E05  1303               	bcf	3,6	;RP1=0, select bank1
  4704     0E06  009F               	movwf	31	;volatile
  4705     0E07                     l137:
  4706     0E07  0008               	return
  4707     0E08                     __end_of_ADC_Init:
  4708                           
  4709                           	psect	text26
  4710     0EFC                     __ptext26:	
  4711 ;; *************** function _ISR *****************
  4712 ;; Defined at:
  4713 ;;		line 53 in file "victim.c"
  4714 ;; Parameters:    Size  Location     Type
  4715 ;;		None
  4716 ;; Auto vars:     Size  Location     Type
  4717 ;;		None
  4718 ;; Return value:  Size  Location     Type
  4719 ;;                  1    wreg      void 
  4720 ;; Registers used:
  4721 ;;		wreg, status,2, btemp1
  4722 ;; Tracked objects:
  4723 ;;		On entry : 0/0
  4724 ;;		On exit  : 0/0
  4725 ;;		Unchanged: 0/0
  4726 ;; Data sizes:     COMMON   BANK0   BANK1   BANK3   BANK2
  4727 ;;      Params:         0       0       0       0       0
  4728 ;;      Locals:         0       0       0       0       0
  4729 ;;      Temps:          3       0       0       0       0
  4730 ;;      Totals:         3       0       0       0       0
  4731 ;;Total ram usage:        3 bytes
  4732 ;; Hardware stack levels used: 1
  4733 ;; This function calls:
  4734 ;;		Nothing
  4735 ;; This function is called by:
  4736 ;;		Interrupt level 1
  4737 ;; This function uses a non-reentrant model
  4738 ;;
  4739                           
  4740     0EFC                     _ISR:	
  4741                           ;psect for function _ISR
  4742                           
  4743     0EFC                     i1l1783:
  4744                           
  4745                           ;victim.c: 54:     if(PIR1bits.TMR1IF) {
  4746     0EFC  1283               	bcf	3,5	;RP0=0, select bank0
  4747     0EFD  1303               	bcf	3,6	;RP1=0, select bank0
  4748     0EFE  1C0C               	btfss	12,0	;volatile
  4749     0EFF  2F01               	goto	u171_21
  4750     0F00  2F02               	goto	u171_20
  4751     0F01                     u171_21:
  4752     0F01  2F22               	goto	i1l153
  4753     0F02                     u171_20:
  4754     0F02                     i1l1785:
  4755                           
  4756                           ;victim.c: 55:         PIR1bits.TMR1IF = 0;
  4757     0F02  100C               	bcf	12,0	;volatile
  4758                           
  4759                           ;victim.c: 56:         TMR1H = 0x0B;
  4760     0F03  300B               	movlw	11
  4761     0F04  008F               	movwf	15	;volatile
  4762                           
  4763                           ;victim.c: 57:         TMR1L = 0xDC;
  4764     0F05  30DC               	movlw	220
  4765     0F06  008E               	movwf	14	;volatile
  4766     0F07                     i1l1787:
  4767                           
  4768                           ;victim.c: 59:         contagem_tempo++;
  4769     0F07  3001               	movlw	1
  4770     0F08  07F9               	addwf	_contagem_tempo,f	;volatile
  4771     0F09  1803               	skipnc
  4772     0F0A  0AFA               	incf	_contagem_tempo+1,f	;volatile
  4773     0F0B  3000               	movlw	0
  4774     0F0C  07FA               	addwf	_contagem_tempo+1,f	;volatile
  4775     0F0D                     i1l1789:
  4776                           
  4777                           ;victim.c: 60:         if(contagem_tempo >= 5){
  4778     0F0D  087A               	movf	_contagem_tempo+1,w	;volatile
  4779     0F0E  3A80               	xorlw	128
  4780     0F0F  00FF               	movwf	btemp1
  4781     0F10  3080               	movlw	128
  4782     0F11  027F               	subwf	btemp1,w
  4783     0F12  1D03               	skipz
  4784     0F13  2F16               	goto	u172_25
  4785     0F14  3005               	movlw	5
  4786     0F15  0279               	subwf	_contagem_tempo,w	;volatile
  4787     0F16                     u172_25:
  4788     0F16  1C03               	skipc
  4789     0F17  2F19               	goto	u172_21
  4790     0F18  2F1A               	goto	u172_20
  4791     0F19                     u172_21:
  4792     0F19  2F22               	goto	i1l153
  4793     0F1A                     u172_20:
  4794     0F1A                     i1l1791:
  4795                           
  4796                           ;victim.c: 61:             flag_enviar_dados = 1;
  4797     0F1A  3001               	movlw	1
  4798     0F1B  1683               	bsf	3,5	;RP0=1, select bank1
  4799     0F1C  1303               	bcf	3,6	;RP1=0, select bank1
  4800     0F1D  00E6               	movwf	_flag_enviar_dados^(0+128)	;volatile
  4801     0F1E  3000               	movlw	0
  4802     0F1F  00E7               	movwf	(_flag_enviar_dados^(0+128)+1)	;volatile
  4803     0F20                     i1l1793:
  4804                           
  4805                           ;victim.c: 62:             contagem_tempo = 0;
  4806     0F20  01F9               	clrf	_contagem_tempo	;volatile
  4807     0F21  01FA               	clrf	_contagem_tempo+1	;volatile
  4808     0F22                     i1l153:
  4809     0F22  0872               	movf	??_ISR+2,w
  4810     0F23  00FF               	movwf	btemp1
  4811     0F24  0871               	movf	??_ISR+1,w
  4812     0F25  008A               	movwf	10
  4813     0F26  0E70               	swapf	??_ISR,w
  4814     0F27  0083               	movwf	3
  4815     0F28  0EFE               	swapf	btemp,f
  4816     0F29  0E7E               	swapf	btemp,w
  4817     0F2A  0009               	retfie
  4818     0F2B                     __end_of_ISR:
  4819     0002                     ___latbits      equ	2
  4820     007E                     btemp           set	126	;btemp
  4821     007E                     btemp0          set	126
  4822     007F                     btemp1          set	127
  4823     007E                     wtemp0          set	126
  4824     007F                     wtemp0a         set	127
  4825     007F                     ttemp0a         set	127
  4826     0080                     ltemp0a         set	128
  4827                           
  4828                           	psect	intentry
  4829     0004                     __pintentry:	
  4830                           ;incstack = 0
  4831                           ; Regs used in _ISR: [wreg+status,2+btemp1]
  4832                           
  4833     0004                     interrupt_function:
  4834     007E                     saved_w         set	btemp
  4835     0004  00FE               	movwf	btemp
  4836     0005  0E03               	swapf	3,w
  4837     0006  00F0               	movwf	??_ISR
  4838     0007  080A               	movf	10,w
  4839     0008  00F1               	movwf	??_ISR+1
  4840     0009  087F               	movf	btemp1,w
  4841     000A  00F2               	movwf	??_ISR+2
  4842     000B  120A  158A  2EFC   	ljmp	_ISR
  4843                           
  4844                           	psect	config
  4845                           
  4846                           ;Config register CONFIG @ 0x2007
  4847                           ;	Oscillator Selection bits
  4848                           ;	FOSC = HS, HS oscillator
  4849                           ;	Watchdog Timer Enable bit
  4850                           ;	WDTE = ON, WDT enabled
  4851                           ;	Power-up Timer Enable bit
  4852                           ;	PWRTE = ON, PWRT enabled
  4853                           ;	Brown-out Reset Enable bit
  4854                           ;	BOREN = OFF, BOR disabled
  4855                           ;	Low-Voltage (Single-Supply) In-Circuit Serial Programming Enable bit
  4856                           ;	LVP = OFF, RB3 is digital I/O, HV on MCLR must be used for programming
  4857                           ;	Data EEPROM Memory Code Protection bit
  4858                           ;	CPD = OFF, Data EEPROM code protection off
  4859                           ;	Flash Program Memory Write Enable bits
  4860                           ;	WRT = OFF, Write protection off; all program memory may be written to by EECON control
  4861                           ;	In-Circuit Debugger Mode bit
  4862                           ;	DEBUG = 0x1, unprogrammed default
  4863                           ;	Flash Program Memory Code Protection bit
  4864                           ;	CP = OFF, Code protection off
  4865     2007                     	org	8199
  4866     2007  3F36               	dw	16182

Data Sizes:
    Strings     172
    Constant    0
    Data        2
    BSS         65
    Persistent  0
    Stack       0

Auto Spaces:
    Space          Size  Autos    Used
    COMMON           14      9      11
    BANK0            80     47      74
    BANK1            80     38      76
    BANK3            96      0       0
    BANK2            96      0       0

Pointer List with Targets:

    f$.$buffer	PTR unsigned char  size(2) Largest target is 16
		 -> main@pkt(BANK1[15]), main@s(BANK1[16]), 

    f$.$source	PTR const unsigned char  size(1) Largest target is 0

    fputc@fp	PTR struct _IO_FILE size(2) Largest target is 11
		 -> sprintf@f(BANK0[11]), 

    fputc@fp$.$buffer	PTR unsigned char  size(2) Largest target is 16
		 -> main@pkt(BANK1[15]), main@s(BANK1[16]), 

    fputc@fp$.$source	PTR const unsigned char  size(1) Largest target is 0

    Lcd_Write_String@a	PTR unsigned char  size(2) Largest target is 18
		 -> main@s(BANK1[16]), STR_1(CODE[17]), STR_10(CODE[15]), STR_11(CODE[15]), 
		 -> STR_12(CODE[15]), STR_13(CODE[18]), STR_2(CODE[17]), STR_3(CODE[17]), 
		 -> STR_6(CODE[17]), STR_7(CODE[17]), STR_8(CODE[17]), STR_9(CODE[13]), 

    S782$buffer	PTR unsigned char  size(2) Largest target is 16
		 -> main@pkt(BANK1[15]), main@s(BANK1[16]), 

    S782$source	PTR const unsigned char  size(1) Largest target is 0

    sprintf@ap	PTR void [1] size(1) Largest target is 2
		 -> ?_sprintf(BANK0[2]), 

    sprintf@fmt	PTR const unsigned char  size(1) Largest target is 17
		 -> STR_4(CODE[9]), STR_5(CODE[17]), 

    sprintf@s	PTR unsigned char  size(1) Largest target is 16
		 -> main@pkt(BANK1[15]), main@s(BANK1[16]), 

    UART_Write_String@s	PTR unsigned char  size(1) Largest target is 15
		 -> main@pkt(BANK1[15]), 

    vfpfcnvrt@ap	PTR PTR void  size(1) Largest target is 1
		 -> sprintf@ap(BANK0[1]), 

    vfpfcnvrt@cp	PTR unsigned char  size(1) Largest target is 17
		 -> STR_4(CODE[9]), STR_5(CODE[17]), 

    vfpfcnvrt@fmt	PTR PTR unsigned char  size(1) Largest target is 1
		 -> vfprintf@cfmt(BANK0[1]), 

    vfpfcnvrt@fp	PTR struct _IO_FILE size(2) Largest target is 11
		 -> sprintf@f(BANK0[11]), 

    vfprintf@ap	PTR PTR void  size(1) Largest target is 1
		 -> sprintf@ap(BANK0[1]), 

    vfprintf@cfmt	PTR unsigned char  size(1) Largest target is 17
		 -> STR_4(CODE[9]), STR_5(CODE[17]), 

    vfprintf@fmt	PTR const unsigned char  size(1) Largest target is 17
		 -> STR_4(CODE[9]), STR_5(CODE[17]), 

    vfprintf@fp	PTR struct _IO_FILE size(2) Largest target is 11
		 -> sprintf@f(BANK0[11]), 


Critical Paths under _main in COMMON

    _main->_Lcd_Init
    _main->_Lcd_Set_Cursor
    _main->_Lcd_Write_String
    _main->___lldiv
    _vfpfcnvrt->___awmod
    _abs->___awmod
    ___lldiv->___lmul
    _UART_Write_String->_UART_Write
    _UART_Init->___aldiv
    _Lcd_Write_String->_Lcd_Port
    _Lcd_Set_Cursor->_Lcd_Cmd
    _Lcd_Init->_Lcd_Cmd
    _Lcd_Clear->_Lcd_Cmd
    _Lcd_Cmd->_Lcd_Port

Critical Paths under _ISR in COMMON

    None.

Critical Paths under _main in BANK0

    _main->_sprintf
    _sprintf->_vfprintf
    _vfprintf->_vfpfcnvrt
    _vfpfcnvrt->_fputc
    ___lldiv->___lmul
    _UART_Init->___aldiv

Critical Paths under _ISR in BANK0

    None.

Critical Paths under _main in BANK1

    None.

Critical Paths under _ISR in BANK1

    None.

Critical Paths under _main in BANK3

    None.

Critical Paths under _ISR in BANK3

    None.

Critical Paths under _main in BANK2

    None.

Critical Paths under _ISR in BANK2

    None.

Call Graph Tables:

 ---------------------------------------------------------------------------------
 (Depth) Function   	        Calls       Base Space   Used Autos Params    Refs
 ---------------------------------------------------------------------------------
 (0) _main                                                41    41      0    4963
                                             44 BANK0      3     3      0
                                              0 BANK1     38    38      0
                           _ADC_Init
                           _ADC_Read
                          _Lcd_Clear
                           _Lcd_Init
                     _Lcd_Set_Cursor
                   _Lcd_Write_String
                           _Leds_Off
                        _Timer1_Init
                          _UART_Init
                          _UART_Read
                         _UART_Write
                  _UART_Write_String
                            ___lldiv
                             ___lmul
                            _sprintf
 ---------------------------------------------------------------------------------
 (1) _sprintf                                             19    15      4    2364
                                             27 BANK0     17    13      4
                           _vfprintf
 ---------------------------------------------------------------------------------
 (2) _vfprintf                                             5     1      4    2046
                                             22 BANK0      5     1      4
                          _vfpfcnvrt
 ---------------------------------------------------------------------------------
 (3) _vfpfcnvrt                                           13     9      4    1846
                                              9 BANK0     13     9      4
                            ___awdiv
                            ___awmod
                                _abs
                              _fputc
 ---------------------------------------------------------------------------------
 (4) _fputc                                               13     9      4     230
                                              3 COMMON     4     0      4
                                              0 BANK0      9     9      0
                              _putch
 ---------------------------------------------------------------------------------
 (5) _putch                                                1     1      0       0
 ---------------------------------------------------------------------------------
 (4) _abs                                                  4     2      2      96
                                              0 BANK0      4     2      2
                            ___awmod (ARG)
 ---------------------------------------------------------------------------------
 (4) ___awmod                                              6     2      4     298
                                              3 COMMON     6     2      4
 ---------------------------------------------------------------------------------
 (4) ___awdiv                                              8     4      4     451
                                              3 COMMON     4     0      4
                                              0 BANK0      4     4      0
 ---------------------------------------------------------------------------------
 (1) ___lmul                                              13     5      8     142
                                              3 COMMON     5     5      0
                                              0 BANK0      8     0      8
 ---------------------------------------------------------------------------------
 (1) ___lldiv                                             14     6      8     247
                                              8 COMMON     1     1      0
                                              8 BANK0     13     5      8
                             ___lmul (ARG)
 ---------------------------------------------------------------------------------
 (1) _UART_Write_String                                    1     0      1      75
                                              4 COMMON     1     0      1
                         _UART_Write
 ---------------------------------------------------------------------------------
 (2) _UART_Write                                           1     1      0      29
                                              3 COMMON     1     1      0
 ---------------------------------------------------------------------------------
 (1) _UART_Read                                            0     0      0       0
 ---------------------------------------------------------------------------------
 (1) _UART_Init                                            8     4      4     485
                                              4 COMMON     4     4      0
                                             14 BANK0      4     0      4
                            ___aldiv
 ---------------------------------------------------------------------------------
 (2) ___aldiv                                             15     7      8     451
                                              3 COMMON     1     1      0
                                              0 BANK0     14     6      8
 ---------------------------------------------------------------------------------
 (1) _Timer1_Init                                          0     0      0       0
 ---------------------------------------------------------------------------------
 (1) _Leds_Off                                             0     0      0       0
 ---------------------------------------------------------------------------------
 (1) _Lcd_Write_String                                     9     7      2     310
                                              4 COMMON     5     3      2
                                              0 BANK0      4     4      0
                           _Lcd_Port
 ---------------------------------------------------------------------------------
 (1) _Lcd_Set_Cursor                                       6     5      1     414
                                              7 COMMON     2     1      1
                                              0 BANK0      4     4      0
                            _Lcd_Cmd
 ---------------------------------------------------------------------------------
 (1) _Lcd_Init                                             2     2      0     261
                                              7 COMMON     2     2      0
                            _Lcd_Cmd
                           _Lcd_Port
 ---------------------------------------------------------------------------------
 (1) _Lcd_Clear                                            0     0      0     145
                            _Lcd_Cmd
 ---------------------------------------------------------------------------------
 (2) _Lcd_Cmd                                              3     3      0     145
                                              4 COMMON     3     3      0
                           _Lcd_Port
 ---------------------------------------------------------------------------------
 (3) _Lcd_Port                                             1     1      0     116
                                              3 COMMON     1     1      0
 ---------------------------------------------------------------------------------
 (1) _ADC_Read                                             2     0      2       0
                                              3 COMMON     2     0      2
 ---------------------------------------------------------------------------------
 (1) _ADC_Init                                             0     0      0       0
 ---------------------------------------------------------------------------------
 Estimated maximum stack depth 5
 ---------------------------------------------------------------------------------
 (Depth) Function   	        Calls       Base Space   Used Autos Params    Refs
 ---------------------------------------------------------------------------------
 (6) _ISR                                                  3     3      0       0
                                              0 COMMON     3     3      0
 ---------------------------------------------------------------------------------
 Estimated maximum stack depth 6
 ---------------------------------------------------------------------------------

 Call Graph Graphs:

 _main (ROOT)
   _ADC_Init
   _ADC_Read
   _Lcd_Clear
     _Lcd_Cmd
       _Lcd_Port
   _Lcd_Init
     _Lcd_Cmd
     _Lcd_Port
   _Lcd_Set_Cursor
     _Lcd_Cmd
   _Lcd_Write_String
     _Lcd_Port
   _Leds_Off
   _Timer1_Init
   _UART_Init
     ___aldiv
   _UART_Read
   _UART_Write
   _UART_Write_String
     _UART_Write
   ___lldiv
     ___lmul (ARG)
   ___lmul
   _sprintf
     _vfprintf
       _vfpfcnvrt
         ___awdiv
         ___awmod
         _abs
           ___awmod (ARG)
         _fputc
           _putch

 _ISR (ROOT)

Address spaces:
Name               Size   Autos  Total    Usage
BANK3               96      0       0      0.0%
BITBANK3            96      0       0      0.0%
BANK2               96      0       0      0.0%
BITBANK2            96      0       0      0.0%
BANK1               80     38      76     95.0%
BITBANK1            80      0       0      0.0%
BANK0               80     47      74     92.5%
BITBANK0            80      0       0      0.0%
COMMON              14      9      11     78.6%
BITCOMMON           14      0       0      0.0%
DATA                 0      0     163      0.0%
STACK                0      0       0      0.0%


Microchip Technology PIC Macro Assembler V3.10 build 20250813170317 
Symbol Table                                                                                   Tue Dec  2 13:03:11 2025

                        pc 0002                         l81 0DF6                         l90 0EB4  
                       l92 0EB5                         l84 0E9D                         l85 0EA0  
                       l86 0EA6                         l87 0EA7                         l95 0E93  
                       l88 0EAD                         l89 0EAE                         l98 0E14  
             ___awdiv@sign 0021                         fsr 0004                        l103 0FA8  
                      l112 07B2                        l121 0E30                        l130 0E33  
                      l115 0F60                        l131 0E32                        l140 0E46  
                      l132 0E39                        l141 0E45                        l109 0689  
                      l134 0E40                        l118 0E26                        l143 0E52  
                      l119 0E25                        l127 0E79                        l137 0E07  
                      l146 0E22                        l163 00F0                        l316 06EF  
                      l164 00EF                        l158 0076                        l184 02C2  
                      l345 057E                        l433 0754                        l177 0261  
                      l355 0602                        l294 07FA                        l446 0FFF  
                      l806 0569                        l743 0EFB                        l817 07FD  
                      l781 040D                        l794 0E65                        l787 0ED8  
                      _RB0 0030                        _RB1 0031                        _RB2 0032  
                      _RB3 0033                        _RB4 0034                        _RB5 0035  
                      _RD2 0042                        _RD3 0043                        _RD4 0044  
                      _RD5 0045                        _RD6 0046                        _RD7 0047  
                      _ISR 0EFC                        _abs 0E53                        fsr0 0004  
                      indf 0000               ___awmod@sign 0078             _contagem_tempo 0079  
                     ?_ISR 0070                       l2001 0711                       l2011 0732  
                     l2003 0714                       ?_abs 0020                       l2101 05A2  
                     l2021 074B                       l2013 0738                       l2005 071B  
                     l2111 05DA                       l2103 05AD                       l2023 0750  
                     l2015 0739                       l2007 071D                       l2031 0E5A  
                     l2121 05FA                       l2113 05DB                       l2105 05B1  
                     l2017 0740                       l2009 0721                       l2041 033E  
                     l2201 003B                       l2115 05E4                       l2107 05BA  
                     l2019 0746                       l2027 0E53                       l2051 0370  
                     l2043 0342                       l2035 0325                       l2131 0ED6  
                     l2211 0056                       l2203 003C                       l2109 05CC  
                     l2117 05EA                       l2141 0F5C                       l2029 0E59  
                     l2061 03B5                       l2053 0372                       l2045 0346  
                     l2037 0336                       l2125 0EB6                       l2301 0210  
                     l2221 0077                       l2213 005B                       l2205 0041  
                     l1511 0EAB                       l2119 05EF                       l2143 0F5F  
                     l2135 0F2B                       l2071 03E1                       l2063 03BA  
                     l2055 0379                       l2047 0352                       l2039 033A  
                     l2127 0EBB                       l2151 0EE3                       l2311 0237  
                     l2303 0215                       l2231 00B4                       l2223 007D  
                     l2215 0060                       l2207 0044                       l1513 0EB2  
                     l1505 0E95                       l2137 0F5A                       l2161 07BB  
                     l2065 03BF                       l2073 03E5                       l2057 039C  
                     l2049 035E                       l2129 0EC8                       l2153 0EE5  
                     l2145 0ED9                       l2313 023B                       l2305 021D  
                     l2321 0262                       l2241 00D4                       l2233 00B7  
                     l2225 008B                       l2217 0065                       l2209 0051  
                     l1507 0E99                       l2091 0582                       l2139 0F5B  
                     l2163 07C1                       l1451 0FB3                       l2067 03C4  
                     l2059 03AF                       l2075 03EC                       l2155 0EF2  
                     l2147 0EDD                       l2331 0276                       l2323 0268  
                     l2307 0226                       l2251 00FE                       l2243 00D7  
                     l2235 00BF                       l2227 0091                       l2219 006D  
                     l1509 0EA4                       l2093 058D                       l2085 056A  
                     l2181 06AE                       l2173 068A                       l2165 07D8  
                     l1461 0FC7                       l1453 0FB5                       l1445 0FA9  
                     l2069 03CD                       l2149 0EE1                       l2341 029C  
                     l2333 027E                       l2325 026D                       l2317 0249  
                     l2309 022E                       l2261 018F                       l2253 0109  
                     l2245 00DF                       l2237 00C8                       l2229 00AF  
                     l1631 0E08                       l2095 058F                       l2087 056D  
                     l1711 0E71                       l2191 06E1                       l2183 06B7  
                     l2175 069C                       l2167 07E1                       l2159 07B3  
                     l1471 0FE4                       l1463 0FCE                       l1455 0FB9  
                     l1447 0FAA                       l2079 03F4                       l2351 02C8  
                     l2335 0287                       l2327 0270                       l2271 01B4  
                     l2263 0198                       l2255 014C                       l2247 00E8  
                     l2239 00CF                       l1721 0DFF                       l1641 0F7A  
                     l1633 0F64                       l2097 0597                       l2089 0571  
                     l1713 0E31                       l1705 0E66                       l2185 06C9  
                     l2177 069F                       l2193 06E7                       l2169 07F2  
                     l1473 0FEB                       l1465 0FD0                       l1457 0FBE  
                     l1449 0FAE                       l2361 02E6                       l2353 02CD  
                     l2345 02AA                       l2337 028F                       l2329 0271  
                     l2281 01CC                       l2273 01BC                       l2257 0152  
                     l2265 019D                       l2249 00F6                       l1723 0E41  
                     l1571 0E87                       l1651 0F9A                       l1643 0F80  
                     l1635 0F69                       l2099 059F                       l1715 0E3D  
                     l1707 0E67                       l2187 06D7                       l2179 06AA  
                     l1467 0FD4                       l1459 0FC4                       l1475 0FF1  
                     l1491 04F7                       l1483 04CA                       l2371 0301  
                     l2363 02E9                       l2355 02D0                       l2339 0298  
                     l2291 01ED                       l2283 01D4                       l2275 01C2  
                     l2267 01A5                       l2259 0187                       l1725 0E4C  
                     l1573 0E90                       l1565 0E7B                       l1653 0FA0  
                     l1637 0F76                       l1645 0F89                       l1661 0622  
                     l1629 0DEF                       l1717 0E3F                       l1709 0E6F  
                     l2189 06D8                       l1477 0FF6                       l1469 0FDE  
                     l1493 0529                       l1485 04D0                       l2381 0313  
                     l2373 0304                       l2365 02F3                       l2357 02D5  
                     l2349 02C3                       l2293 01F8                       l2277 01C4  
                     l2285 01DE                       l2269 01AE                       l2197 0036  
                     l1567 0E7E                       l1647 0F96                       l1639 0F78  
                     l1671 0653                       l1663 063C                       l1655 0603  
                     l1575 0E24                       l1479 0FFB                       l1487 04D6  
                     l2383 031D                       l2375 0305                       l2367 02F6  
                     l2359 02DD                       l2287 01E4                       l2295 0202  
                     l2279 01C9                       l2199 0039                       l1569 0E84  
                     l1649 0F98                       l1681 0667                       l1673 0656  
                     l1665 063D                       l1657 0608                       l1729 0E15  
                     l1577 0E2C                       l1489 04DD                       l2377 030F  
                     l2369 02F7                       l2297 0208                       l2289 01E8  
                     l1691 0773                       l1675 065C                       l1667 064B  
                     l1659 0620                       l1683 066D                       l2379 0312  
                     l2299 020D                       l1693 0779                       l1685 0755  
                     l1677 065F                       l1669 064E                       l1687 075B  
                     l1679 0664                       l1689 0764                       l1991 06FE  
                     l1983 06F0                       l1993 0702                       l1985 06F3  
                     l1995 0707                       l1987 06F7                       l1997 0709  
                     l1989 06FC                       l1999 070B                       STR_1 0474  
                     STR_2 0474                       STR_3 0485                       STR_4 04C1  
                     STR_5 0452                       STR_6 0430                       STR_7 0463  
                     STR_8 0441                       STR_9 04B4                       u1100 0FDE  
                     u1101 0FDD                       u1200 0E99                       u1120 0FF1  
                     u2000 0336                       u1201 0E98                       u1121 0FF0  
                     u1105 0FDA                       u2001 0335                       u1210 0EA4  
                     u1130 0FF6                       u1050 0FAE                       u2010 0352  
                     u1211 0EA3                       u1131 0FF5                       u1115 0FE5  
                     u1051 0FAD                       u2011 0351                       u1220 0EAB  
                     u2100 0571                       u1060 0FB9                       u1140 04D0  
                     u2020 035E                       u1221 0EAA                       u2101 0570  
                     u1061 0FB8                       u1141 04CF                       u2021 035D  
                     u1230 0EB2                       u2110 0582                       u1070 0FC4  
                     u1150 04D6                       u2030 0377                       u1231 0EB1  
                     u2111 0581                       u1071 0FC3                       u1151 04D5  
                     u2031 0375                       u2120 059F                       u1160 04F7  
                     u2040 0378                       u2200 0ED6                       u2121 059E  
                     u1161 04F6                       u2201 0ED5                       u2210 0F3B  
                     u1090 0FD4                       u1170 0529                       u2050 03B5  
                     u1091 0FD3                       u1171 0528                       u2051 03B4  
                     u1500 062C                       u2140 05B1                       u1340 0E2C  
                     u2220 07C1                       u1180 054C                       u2060 03BA  
                     u2141 05B0                       u1341 0E2B                       u2221 07C0  
                     u1085 0FC8                       u2061 03B9                       u2310 06C9  
                     u2070 03BF                       u2135 05A4                       u2215 0F36  
                     u2311 06C8                       u2231 07CA                       u1175 0525  
                     u2071 03BE                       u1520 0677                       u2160 05CC  
                     u2232 07D1                       u2080 03C4                       u2400 00FE  
                     u2161 05CB                       u2305 06B0                       u2233 07D8  
                     u2081 03C3                       u2401 00FD                       u1530 0689  
                     u2330 06E7                       u2090 03EB                       u2410 0152  
                     u1531 0688                       u1515 0640                       u2155 05B3  
                     u2331 06E6                       u2315 06C5                       u2091 03EA  
                     u2411 0151                       u1460 0F69                       u2180 05EA  
                     u2260 07F2                       u2420 01B4                       u2340 007D  
                     u1461 0F68                       u2181 05E9                       u2165 05C8  
                     u2325 06D9                       u2261 07F1                       u2245 07DA  
                     u2421 01B3                       u2341 007C                       u2190 05EF  
                     u1550 0E79                       u2270 069C                       u2430 01C2  
                     u2350 0091                       u2191 05EE                       u2175 05DC  
                     u1551 0E78                       u2271 069B                       u2255 07E2  
                     u2431 01C1                       u2351 0090                       u1560 0E39  
                     u2440 01E4                       u2360 009A                       u1561 0E38  
                     u2441 01E3                       u2361 0098                       u1490 0612  
                     u1570 0E3D                       u2290 06AE                       u2450 0208  
                     u2370 009B                       u1475 0F6F                       u1571 0E3C  
                     u2291 06AD                       u2451 0207                       u2507 0085  
                     u1580 0E4C                       u1900 0702                       u2460 0248  
                     u2380 00AF                       u1581 0E4B                       u1485 0F8F  
                     u2285 06A1                       u1901 0701                       u2517 0251  
                     u2461 0247                       u2381 00AE                       u1910 0711  
                     u2470 0268                       u2390 00F6                       u2607 076E  
                     u1911 0710                       u2527 02B2                       u2471 0267  
                     u2391 00F5                       u2480 02A9                       u2617 077D  
                     u2537 02EF                       u2481 02A8                       u2465 0244  
                     u1930 0721                       u2490 02C8                       u2627 0E8B  
                     u1931 0720                       u2547 02FD                       u2491 02C7  
                     u1925 0715                       u2557 030B                       u2485 02A5  
                     u1950 0732                       u1951 0731                       u2567 0319  
                     u2577 0650                       u1945 0722                       u1970 0746  
                     u1890 06F7                       u2587 0661                       u1971 0745  
                     u1955 072E                       u1891 06F6                       u1980 074B  
                     u2597 075F                       u1981 074A                       u1965 073A  
                     u1990 0E59                       u1991 0E58                       abs@a 0020  
        ?_Lcd_Write_String 0074                       _dbuf 00C6                       _main 0036  
                     _prec 0065                       btemp 007E           __end_of_ADC_Init 0E08  
         __end_of_ADC_Read 0E53                       start 000E         ??_Lcd_Write_String 0076  
          __end_of_Lcd_Cmd 0E94                      ??_ISR 0070                      ??_abs 0022  
          __end_of___aldiv 0603                      ?_main 0070            __end_of___awdiv 0755  
                    STR_10 04A5                      STR_11 0496                      STR_12 04A5  
                    STR_13 041E            __end_of___awmod 1000            __end_of___lldiv 06F0  
          ___awdiv@divisor 0073                      _T1CON 0010                      i1l153 0F22  
          ___awdiv@counter 0020                      _RCREG 001A               vfpfcnvrt@fmt 002B  
                    _TMR1H 000F                      _TMR1L 000E                      _SPBRG 0099  
                    _TRISB 0086                      _TRISD 0088                      _TXREG 0019  
      ___lmul@multiplicand 0024                ?_UART_Write 0070                      _flags 0069  
                    _fputc 04CA                      btemp0 007E                      btemp1 007F  
                    _width 0063                      _putch 07FD                      main@c 00C5  
                    main@k 00C1                      main@s 00A0                      pclath 000A  
                    status 0003                      wtemp0 007E            __end_of_sprintf 0EFC  
         __end_of_Lcd_Init 07B3           __end_of_Lcd_Port 0EB6            __initialization 0011  
         __end_of_Leds_Off 0DF7               __end_of_main 0325                     ??_main 004C  
                   _ADCON0 001F                     _ADCON1 009F                     ?_fputc 0073  
                   _ADRESH 001E                     _ADRESL 009E           ___awdiv@dividend 0075  
                   ?_putch 0070                     i1l1791 0F1A                     i1l1783 0EFC  
                   i1l1793 0F20                     i1l1785 0F02                     i1l1787 0F07  
                   i1l1789 0F0D                     u171_20 0F02                     u171_21 0F01  
                   u172_20 0F1A                     u172_21 0F19                     u172_25 0F16  
                ??_Lcd_Cmd 0074              vfpfcnvrt@done 002F              ??_Timer1_Init 0073  
             vfprintf@cfmt 003A          __end_of_UART_Init 0F61          __end_of_UART_Read 0E41  
                   ___lmul 07B3                  ??___aldiv 0073                  ??___awdiv 0077  
                ??___awmod 0077                  ??___lldiv 0078                     _buffer 004F  
         ___awdiv@quotient 0022            ___awmod@divisor 0073            ___awmod@counter 0077  
                   fputc@c 0073                     ltemp0a 0080                  ?_ADC_Init 0070  
                ?_ADC_Read 0073                     saved_w 007E                     putch@c 0070  
                   ttemp0a 007F           __end_of_vfprintf 0ED9                  ??_sprintf 003F  
                   wtemp0a 007F            Lcd_Set_Cursor@a 0020            Lcd_Set_Cursor@b 0077  
          Lcd_Set_Cursor@t 0023            Lcd_Set_Cursor@y 0022            Lcd_Set_Cursor@z 0021  
  __end_of__initialization 0032          __end_of_Lcd_Clear 0E15             __pcstackCOMMON 0070  
             __pidataBANK1 07FB              __end_of_fputc 056A              __end_of_putch 07FE  
      __end_of_Timer1_Init 0E23             _Lcd_Set_Cursor 0F61             _OPTION_REGbits 0081  
               ??_ADC_Init 0073                 ??_ADC_Read 0075                  ?_Lcd_Init 0070  
                ?_Lcd_Port 0070                    ??_fputc 0020                    ??_putch 0073  
                ?_Leds_Off 0070                 __pbssBANK0 004F                 __pbssBANK1 00C6  
               __pmaintext 0036                    ?___lmul 0020                 __pintentry 0004  
           ___lmul@product 0074     __end_of_Lcd_Set_Cursor 0FA9               ??_UART_Write 0073  
               ??_Lcd_Init 0077                 ??_Lcd_Port 0073                 ??_Leds_Off 0073  
               __stringtab 040E                    _Lcd_Cmd 0E7A                _Timer1_Init 0E15  
                  ___aldiv 056A                    ___awdiv 06F0                    ___awmod 0FA9  
                  ___lldiv 068A         __end_of_UART_Write 0E31                  ?_vfprintf 0036  
          ?_Lcd_Set_Cursor 0077                    __ptext1 0ED9                    __ptext2 0EB6  
                  __ptext3 0325                    __ptext4 04CA                    __ptext5 07FD  
                  __ptext6 0E53                    __ptext7 0FA9                    __ptext8 06F0  
                  __ptext9 07B3           ___awmod@dividend 0075           ___aldiv@dividend 0024  
              UART_Write@d 0073                    _sprintf 0ED9                    clrloop0 0DF8  
                  main@pkt 00B0                    main@pot 00BF       end_of_initialization 0032  
                  fputc@fp 0075            ___lldiv@divisor 0028            ___lldiv@counter 0034  
        __end_of_vfpfcnvrt 040E                  _RCSTAbits 0018           ___aldiv@quotient 002A  
         vfpfcnvrt@convarg 0031                  Lcd_Port@a 0073                 ??_vfprintf 0079  
                _UART_Init 0F2B                  _UART_Read 0E31          Lcd_Write_String@a 0074  
        Lcd_Write_String@i 0022          Lcd_Write_String@t 0020          Lcd_Write_String@y 0021  
                _TXSTAbits 0098                  _Lcd_Clear 0E08             __end_of___lmul 07FB  
              vfpfcnvrt@ap 002C                vfpfcnvrt@cp 0030                vfpfcnvrt@fp 0029  
         _Lcd_Write_String 0603                 ?_UART_Init 002E                 ?_UART_Read 0070  
      start_initialization 0011                __end_of_ISR 0F2B                __end_of_abs 0E66  
              vfprintf@fmt 0038                 ?_Lcd_Clear 0070                   ??___lmul 0073  
              __pdataBANK1 00EA                __pbssCOMMON 0079                  ___latbits 0002  
            __pcstackBANK0 0020              __pcstackBANK1 00A0          _flag_enviar_dados 00E6  
                 ?_Lcd_Cmd 0070               _kmh_simulado 00E8               ?_Timer1_Init 0070  
         ??_Lcd_Set_Cursor 0078              UART_Init@baud 002E                   ?___aldiv 0020  
                 ?___awdiv 0073                   ?___awmod 0073                   ?___lldiv 0028  
              ??_UART_Init 0074                ??_UART_Read 0073                  __pstrings 040E  
                 _ADC_Init 0DFF                   _ADC_Read 0E41                   ?_sprintf 003B  
          ___aldiv@divisor 0020                  _modo_hack 0067          interrupt_function 0004  
          ___aldiv@counter 0028                  clear_ram0 0DF7                   _PIE1bits 008C  
                 Lcd_Cmd@a 0076                   _PIR1bits 000C                   _GO_nDONE 00FA  
              ??_Lcd_Clear 0077                  _vfpfcnvrt 0325                __stringbase 041D  
                main@k_361 00C3                   _Lcd_Init 0755                   _Lcd_Port 0E94  
               vfpfcnvrt@c 0035          ___lmul@multiplier 0020                   _Leds_Off 0DEF  
 __end_of_Lcd_Write_String 068A                 vfprintf@ap 0039                 vfprintf@fp 0036  
               ?_vfpfcnvrt 0029         __end_of__stringtab 041E          _UART_Write_String 0E66  
               sprintf@fmt 003C         ?_UART_Write_String 0074                   __ptext10 068A  
                 __ptext11 0E66                   __ptext20 0755                   __ptext12 0E23  
                 __ptext21 0E08                   __ptext13 0E31                   __ptext22 0E7A  
                 __ptext14 0F2B                   __ptext23 0E94                   __ptext15 056A  
                 __ptext24 0E41                   __ptext16 0E15                   __ptext25 0DFF  
                 __ptext17 0DEF                   __ptext26 0EFC                   __ptext18 0603  
                 __ptext19 0F61        ??_UART_Write_String 0075                   _trancado 00EA  
                 _vfprintf 0EB6  __end_of_UART_Write_String 0E7A                 _INTCONbits 000B  
                 intlevel1 0000                  sprintf@ap 0040           ___lldiv@dividend 002C  
                stringcode 0418         UART_Write_String@s 0074                ??_vfpfcnvrt 002D  
                 sprintf@f 0041                   sprintf@s 003B           ___lldiv@quotient 0030  
                 stringdir 0418                   stringtab 040E               ___aldiv@sign 0029  
               _UART_Write 0E23  
